; ModuleID = 'string_reverse.3f72a88a-cgu.0'
source_filename = "string_reverse.3f72a88a-cgu.0"
target datalayout = "e-m:e-p270:32:32-p271:32:32-p272:64:64-i64:64-f80:128-n8:16:32:64-S128"
target triple = "x86_64-unknown-linux-gnu"

%"core::panic::location::Location" = type { { [0 x i8]*, i64 }, i32, i32 }
%"core::result::Result<core::ptr::non_null::NonNull<[u8]>, core::alloc::AllocError>::Err" = type { %"core::alloc::AllocError" }
%"core::alloc::AllocError" = type {}
%"core::result::Result<core::alloc::layout::Layout, core::alloc::layout::LayoutError>::Err" = type { %"core::alloc::layout::LayoutError" }
%"core::alloc::layout::LayoutError" = type {}
%"core::option::Option<usize>::Some" = type { [1 x i64], i64 }
%"alloc::string::String" = type { %"alloc::vec::Vec<u8>" }
%"alloc::vec::Vec<u8>" = type { { i8*, i64 }, i64 }
%"core::ptr::metadata::PtrRepr<[u8]>" = type { [2 x i64] }
%"core::ops::control_flow::ControlFlow<core::result::Result<core::convert::Infallible, core::alloc::layout::LayoutError>, usize>::Continue" = type { [1 x i64], i64 }
%"core::result::Result<usize, core::alloc::layout::LayoutError>::Err" = type { [8 x i8], %"core::alloc::layout::LayoutError" }
%"core::result::Result<usize, core::alloc::layout::LayoutError>::Ok" = type { [1 x i64], i64 }
%"core::result::Result<core::ptr::non_null::NonNull<u8>, core::alloc::AllocError>::Err" = type { %"core::alloc::AllocError" }
%"alloc::alloc::Global" = type {}
%"core::result::Result<(), alloc::collections::TryReserveError>" = type { i64, [2 x i64] }
%"core::result::Result<(), alloc::collections::TryReserveError>::Err" = type { [1 x i64], { i64, i64 } }
%"core::option::Option<(core::ptr::non_null::NonNull<u8>, core::alloc::layout::Layout)>" = type { {}*, [2 x i64] }
%"core::option::Option<(core::ptr::non_null::NonNull<u8>, core::alloc::layout::Layout)>::Some" = type { { i8*, { i64, i64 } } }
%"core::result::Result<core::convert::Infallible, core::alloc::AllocError>::Err" = type { %"core::alloc::AllocError" }
%"core::ops::control_flow::ControlFlow<core::result::Result<core::convert::Infallible, core::alloc::AllocError>, core::ptr::non_null::NonNull<u8>>::Break" = type { %"core::result::Result<core::convert::Infallible, core::alloc::AllocError>::Err" }
%"core::result::Result<core::convert::Infallible, core::alloc::layout::LayoutError>::Err" = type { %"core::alloc::layout::LayoutError" }
%"core::ops::control_flow::ControlFlow<core::result::Result<core::convert::Infallible, core::alloc::layout::LayoutError>, usize>::Break" = type { [8 x i8], %"core::result::Result<core::convert::Infallible, core::alloc::layout::LayoutError>::Err" }
%"unwind::libunwind::_Unwind_Exception" = type { i64, void (i32, %"unwind::libunwind::_Unwind_Exception"*)*, [6 x i64] }
%"unwind::libunwind::_Unwind_Context" = type { [0 x i8] }

@vtable.0 = private unnamed_addr constant <{ i8*, [16 x i8], i8*, i8*, i8* }> <{ i8* bitcast (void (i64**)* @"_ZN4core3ptr85drop_in_place$LT$std..rt..lang_start$LT$$LP$$RP$$GT$..$u7b$$u7b$closure$u7d$$u7d$$GT$17h009eb9b35ae26553E" to i8*), [16 x i8] c"\08\00\00\00\00\00\00\00\08\00\00\00\00\00\00\00", i8* bitcast (i32 (i64**)* @"_ZN4core3ops8function6FnOnce40call_once$u7b$$u7b$vtable.shim$u7d$$u7d$17hd201504823593192E" to i8*), i8* bitcast (i32 (i64**)* @"_ZN3std2rt10lang_start28_$u7b$$u7b$closure$u7d$$u7d$17hda6a19776aa65e0fE" to i8*), i8* bitcast (i32 (i64**)* @"_ZN3std2rt10lang_start28_$u7b$$u7b$closure$u7d$$u7d$17hda6a19776aa65e0fE" to i8*) }>, align 8
@alloc34 = private unnamed_addr constant <{ [75 x i8] }> <{ [75 x i8] c"/rustc/8d60bf427a4b055f464122062e76b3ec34d4f8ba/library/core/src/ptr/mod.rs" }>, align 1
@alloc35 = private unnamed_addr constant <{ i8*, [16 x i8] }> <{ i8* getelementptr inbounds (<{ [75 x i8] }>, <{ [75 x i8] }>* @alloc34, i32 0, i32 0, i32 0), [16 x i8] c"K\00\00\00\00\00\00\00\95\02\00\00\0D\00\00\00" }>, align 8
@alloc36 = private unnamed_addr constant <{ [80 x i8] }> <{ [80 x i8] c"/rustc/8d60bf427a4b055f464122062e76b3ec34d4f8ba/library/core/src/alloc/layout.rs" }>, align 1
@alloc37 = private unnamed_addr constant <{ i8*, [16 x i8] }> <{ i8* getelementptr inbounds (<{ [80 x i8] }>, <{ [80 x i8] }>* @alloc36, i32 0, i32 0, i32 0), [16 x i8] c"P\00\00\00\00\00\00\00\98\01\00\00\1A\00\00\00" }>, align 8
@alloc38 = private unnamed_addr constant <{ [74 x i8] }> <{ [74 x i8] c"/rustc/8d60bf427a4b055f464122062e76b3ec34d4f8ba/library/alloc/src/alloc.rs" }>, align 1
@alloc39 = private unnamed_addr constant <{ i8*, [16 x i8] }> <{ i8* getelementptr inbounds (<{ [74 x i8] }>, <{ [74 x i8] }>* @alloc38, i32 0, i32 0, i32 0), [16 x i8] c"J\00\00\00\00\00\00\00\AA\00\00\00\1B\00\00\00" }>, align 8
@alloc40 = private unnamed_addr constant <{ [76 x i8] }> <{ [76 x i8] c"/rustc/8d60bf427a4b055f464122062e76b3ec34d4f8ba/library/alloc/src/raw_vec.rs" }>, align 1
@alloc41 = private unnamed_addr constant <{ i8*, [16 x i8] }> <{ i8* getelementptr inbounds (<{ [76 x i8] }>, <{ [76 x i8] }>* @alloc40, i32 0, i32 0, i32 0), [16 x i8] c"L\00\00\00\00\00\00\00\F7\00\00\00;\00\00\00" }>, align 8
@alloc42 = private unnamed_addr constant <{ [13 x i8] }> <{ [13 x i8] c"Hello, World!" }>, align 1
@alloc53 = private unnamed_addr constant <{ [19 x i8] }> <{ [19 x i8] c"./string_reverse.rs" }>, align 1
@alloc44 = private unnamed_addr constant <{ i8*, [16 x i8] }> <{ i8* getelementptr inbounds (<{ [19 x i8] }>, <{ [19 x i8] }>* @alloc53, i32 0, i32 0, i32 0), [16 x i8] c"\13\00\00\00\00\00\00\00\08\00\00\00\18\00\00\00" }>, align 8
@alloc46 = private unnamed_addr constant <{ i8*, [16 x i8] }> <{ i8* getelementptr inbounds (<{ [19 x i8] }>, <{ [19 x i8] }>* @alloc53, i32 0, i32 0, i32 0), [16 x i8] c"\13\00\00\00\00\00\00\00\09\00\00\00\1E\00\00\00" }>, align 8
@str.1 = internal constant [33 x i8] c"attempt to subtract with overflow"
@alloc48 = private unnamed_addr constant <{ i8*, [16 x i8] }> <{ i8* getelementptr inbounds (<{ [19 x i8] }>, <{ [19 x i8] }>* @alloc53, i32 0, i32 0, i32 0), [16 x i8] c"\13\00\00\00\00\00\00\00\09\00\00\00\18\00\00\00" }>, align 8
@alloc50 = private unnamed_addr constant <{ i8*, [16 x i8] }> <{ i8* getelementptr inbounds (<{ [19 x i8] }>, <{ [19 x i8] }>* @alloc53, i32 0, i32 0, i32 0), [16 x i8] c"\13\00\00\00\00\00\00\00\09\00\00\00\0D\00\00\00" }>, align 8
@alloc52 = private unnamed_addr constant <{ i8*, [16 x i8] }> <{ i8* getelementptr inbounds (<{ [19 x i8] }>, <{ [19 x i8] }>* @alloc53, i32 0, i32 0, i32 0), [16 x i8] c"\13\00\00\00\00\00\00\00\0A\00\00\00\13\00\00\00" }>, align 8
@alloc54 = private unnamed_addr constant <{ i8*, [16 x i8] }> <{ i8* getelementptr inbounds (<{ [19 x i8] }>, <{ [19 x i8] }>* @alloc53, i32 0, i32 0, i32 0), [16 x i8] c"\13\00\00\00\00\00\00\00\0A\00\00\00\0D\00\00\00" }>, align 8

; <core::ptr::non_null::NonNull<T> as core::convert::From<core::ptr::unique::Unique<T>>>::from
; Function Attrs: inlinehint nonlazybind uwtable
define internal i8* @"_ZN119_$LT$core..ptr..non_null..NonNull$LT$T$GT$$u20$as$u20$core..convert..From$LT$core..ptr..unique..Unique$LT$T$GT$$GT$$GT$4from17h9ac4922a9b919b97E"(i8* %unique) unnamed_addr #0 {
start:
; call core::ptr::unique::Unique<T>::as_ptr
  %_2 = call i8* @"_ZN4core3ptr6unique15Unique$LT$T$GT$6as_ptr17h999fb5059954691eE"(i8* %unique)
  br label %bb1

bb1:                                              ; preds = %start
; call core::ptr::non_null::NonNull<T>::new_unchecked
  %0 = call i8* @"_ZN4core3ptr8non_null16NonNull$LT$T$GT$13new_unchecked17h256c3751eee09a7fE"(i8* %_2)
  br label %bb2

bb2:                                              ; preds = %bb1
  ret i8* %0
}

; <alloc::collections::TryReserveError as core::convert::From<alloc::collections::TryReserveErrorKind>>::from
; Function Attrs: inlinehint nonlazybind uwtable
define internal { i64, i64 } @"_ZN122_$LT$alloc..collections..TryReserveError$u20$as$u20$core..convert..From$LT$alloc..collections..TryReserveErrorKind$GT$$GT$4from17h5a9c0878376555d3E"(i64 %kind.0, i64 %kind.1) unnamed_addr #0 {
start:
  %0 = alloca { i64, i64 }, align 8
  %1 = getelementptr inbounds { i64, i64 }, { i64, i64 }* %0, i32 0, i32 0
  store i64 %kind.0, i64* %1, align 8
  %2 = getelementptr inbounds { i64, i64 }, { i64, i64 }* %0, i32 0, i32 1
  store i64 %kind.1, i64* %2, align 8
  %3 = getelementptr inbounds { i64, i64 }, { i64, i64 }* %0, i32 0, i32 0
  %4 = load i64, i64* %3, align 8
  %5 = getelementptr inbounds { i64, i64 }, { i64, i64 }* %0, i32 0, i32 1
  %6 = load i64, i64* %5, align 8
  %7 = insertvalue { i64, i64 } undef, i64 %4, 0
  %8 = insertvalue { i64, i64 } %7, i64 %6, 1
  ret { i64, i64 } %8
}

; <core::result::Result<T,F> as core::ops::try_trait::FromResidual<core::result::Result<core::convert::Infallible,E>>>::from_residual
; Function Attrs: inlinehint nonlazybind uwtable
define internal { i8*, i64 } @"_ZN153_$LT$core..result..Result$LT$T$C$F$GT$$u20$as$u20$core..ops..try_trait..FromResidual$LT$core..result..Result$LT$core..convert..Infallible$C$E$GT$$GT$$GT$13from_residual17h7a6211e00e8dae0dE"(%"core::panic::location::Location"* align 8 %0) unnamed_addr #0 {
start:
  %1 = alloca { i8*, i64 }, align 8
; call <T as core::convert::From<T>>::from
  call void @"_ZN50_$LT$T$u20$as$u20$core..convert..From$LT$T$GT$$GT$4from17h607faa3f6994df59E"()
  br label %bb1

bb1:                                              ; preds = %start
  %2 = bitcast { i8*, i64 }* %1 to %"core::result::Result<core::ptr::non_null::NonNull<[u8]>, core::alloc::AllocError>::Err"*
  %3 = bitcast %"core::result::Result<core::ptr::non_null::NonNull<[u8]>, core::alloc::AllocError>::Err"* %2 to %"core::alloc::AllocError"*
  %4 = bitcast { i8*, i64 }* %1 to {}**
  store {}* null, {}** %4, align 8
  %5 = getelementptr inbounds { i8*, i64 }, { i8*, i64 }* %1, i32 0, i32 0
  %6 = load i8*, i8** %5, align 8
  %7 = getelementptr inbounds { i8*, i64 }, { i8*, i64 }* %1, i32 0, i32 1
  %8 = load i64, i64* %7, align 8
  %9 = insertvalue { i8*, i64 } undef, i8* %6, 0
  %10 = insertvalue { i8*, i64 } %9, i64 %8, 1
  ret { i8*, i64 } %10
}

; <core::result::Result<T,F> as core::ops::try_trait::FromResidual<core::result::Result<core::convert::Infallible,E>>>::from_residual
; Function Attrs: inlinehint nonlazybind uwtable
define internal { i64, i64 } @"_ZN153_$LT$core..result..Result$LT$T$C$F$GT$$u20$as$u20$core..ops..try_trait..FromResidual$LT$core..result..Result$LT$core..convert..Infallible$C$E$GT$$GT$$GT$13from_residual17hace7b5fbe12e07b0E"(%"core::panic::location::Location"* align 8 %0) unnamed_addr #0 {
start:
  %1 = alloca { i64, i64 }, align 8
; call <T as core::convert::From<T>>::from
  call void @"_ZN50_$LT$T$u20$as$u20$core..convert..From$LT$T$GT$$GT$4from17h98675ed07fd30887E"()
  br label %bb1

bb1:                                              ; preds = %start
  %2 = bitcast { i64, i64 }* %1 to %"core::result::Result<core::alloc::layout::Layout, core::alloc::layout::LayoutError>::Err"*
  %3 = bitcast %"core::result::Result<core::alloc::layout::Layout, core::alloc::layout::LayoutError>::Err"* %2 to %"core::alloc::layout::LayoutError"*
  %4 = getelementptr inbounds { i64, i64 }, { i64, i64 }* %1, i32 0, i32 1
  store i64 0, i64* %4, align 8
  %5 = getelementptr inbounds { i64, i64 }, { i64, i64 }* %1, i32 0, i32 0
  %6 = load i64, i64* %5, align 8
  %7 = getelementptr inbounds { i64, i64 }, { i64, i64 }* %1, i32 0, i32 1
  %8 = load i64, i64* %7, align 8
  %9 = insertvalue { i64, i64 } undef, i64 %6, 0
  %10 = insertvalue { i64, i64 } %9, i64 %8, 1
  ret { i64, i64 } %10
}

; std::sys_common::backtrace::__rust_begin_short_backtrace
; Function Attrs: noinline nonlazybind uwtable
define internal void @_ZN3std10sys_common9backtrace28__rust_begin_short_backtrace17h17c0976a56da6663E(void ()* %f) unnamed_addr #1 personality i32 (i32, i32, i64, %"unwind::libunwind::_Unwind_Exception"*, %"unwind::libunwind::_Unwind_Context"*)* @rust_eh_personality {
start:
  %0 = alloca { i8*, i32 }, align 8
; call core::ops::function::FnOnce::call_once
  call void @_ZN4core3ops8function6FnOnce9call_once17h8f6499d73692acfaE(void ()* %f)
  br label %bb1

bb1:                                              ; preds = %start
; invoke core::hint::black_box
  invoke void @_ZN4core4hint9black_box17h4e84916163528451E()
          to label %bb2 unwind label %cleanup

bb3:                                              ; preds = %cleanup
  br label %bb4

cleanup:                                          ; preds = %bb1
  %1 = landingpad { i8*, i32 }
          cleanup
  %2 = extractvalue { i8*, i32 } %1, 0
  %3 = extractvalue { i8*, i32 } %1, 1
  %4 = getelementptr inbounds { i8*, i32 }, { i8*, i32 }* %0, i32 0, i32 0
  store i8* %2, i8** %4, align 8
  %5 = getelementptr inbounds { i8*, i32 }, { i8*, i32 }* %0, i32 0, i32 1
  store i32 %3, i32* %5, align 8
  br label %bb3

bb2:                                              ; preds = %bb1
  ret void

bb4:                                              ; preds = %bb3
  %6 = bitcast { i8*, i32 }* %0 to i8**
  %7 = load i8*, i8** %6, align 8
  %8 = getelementptr inbounds { i8*, i32 }, { i8*, i32 }* %0, i32 0, i32 1
  %9 = load i32, i32* %8, align 8
  %10 = insertvalue { i8*, i32 } undef, i8* %7, 0
  %11 = insertvalue { i8*, i32 } %10, i32 %9, 1
  resume { i8*, i32 } %11
}

; std::rt::lang_start
; Function Attrs: nonlazybind uwtable
define hidden i64 @_ZN3std2rt10lang_start17h1e3a0f52709b9116E(void ()* %main, i64 %argc, i8** %argv) unnamed_addr #2 {
start:
  %_8 = alloca i64*, align 8
  %_4 = alloca i64, align 8
  %0 = bitcast i64** %_8 to void ()**
  store void ()* %main, void ()** %0, align 8
  %_5.0 = bitcast i64** %_8 to {}*
; call std::rt::lang_start_internal
  %1 = call i64 @_ZN3std2rt19lang_start_internal17h81b06a7d53125e17E({}* align 1 %_5.0, [3 x i64]* align 8 bitcast (<{ i8*, [16 x i8], i8*, i8*, i8* }>* @vtable.0 to [3 x i64]*), i64 %argc, i8** %argv)
  store i64 %1, i64* %_4, align 8
  br label %bb1

bb1:                                              ; preds = %start
  %v = load i64, i64* %_4, align 8
  ret i64 %v
}

; std::rt::lang_start::{{closure}}
; Function Attrs: inlinehint nonlazybind uwtable
define internal i32 @"_ZN3std2rt10lang_start28_$u7b$$u7b$closure$u7d$$u7d$17hda6a19776aa65e0fE"(i64** align 8 %_1) unnamed_addr #0 {
start:
  %0 = bitcast i64** %_1 to void ()**
  %_4 = load void ()*, void ()** %0, align 8, !nonnull !3, !noundef !3
; call std::sys_common::backtrace::__rust_begin_short_backtrace
  call void @_ZN3std10sys_common9backtrace28__rust_begin_short_backtrace17h17c0976a56da6663E(void ()* %_4)
  br label %bb1

bb1:                                              ; preds = %start
; call <() as std::process::Termination>::report
  %_2 = call i8 @"_ZN54_$LT$$LP$$RP$$u20$as$u20$std..process..Termination$GT$6report17h9724af5ce9cd6f80E"()
  br label %bb2

bb2:                                              ; preds = %bb1
; call std::process::ExitCode::to_i32
  %1 = call i32 @_ZN3std7process8ExitCode6to_i3217had449e3e45b51baaE(i8 %_2)
  br label %bb3

bb3:                                              ; preds = %bb2
  ret i32 %1
}

; std::sys::unix::process::process_common::ExitCode::as_i32
; Function Attrs: inlinehint nonlazybind uwtable
define internal i32 @_ZN3std3sys4unix7process14process_common8ExitCode6as_i3217hae0723b5c9e4b858E(i8* align 1 %self) unnamed_addr #0 {
start:
  %_2 = load i8, i8* %self, align 1
  %0 = zext i8 %_2 to i32
  ret i32 %0
}

; std::process::ExitCode::to_i32
; Function Attrs: inlinehint nonlazybind uwtable
define internal i32 @_ZN3std7process8ExitCode6to_i3217had449e3e45b51baaE(i8 %0) unnamed_addr #0 {
start:
  %self = alloca i8, align 1
  store i8 %0, i8* %self, align 1
; call std::sys::unix::process::process_common::ExitCode::as_i32
  %1 = call i32 @_ZN3std3sys4unix7process14process_common8ExitCode6as_i3217hae0723b5c9e4b858E(i8* align 1 %self)
  br label %bb1

bb1:                                              ; preds = %start
  ret i32 %1
}

; <usize as core::iter::range::Step>::forward_unchecked
; Function Attrs: inlinehint nonlazybind uwtable
define internal i64 @"_ZN49_$LT$usize$u20$as$u20$core..iter..range..Step$GT$17forward_unchecked17hbe3bc35d0cf13f85E"(i64 %start1, i64 %n) unnamed_addr #0 {
start:
  %0 = alloca i64, align 8
  %1 = add nuw i64 %start1, %n
  store i64 %1, i64* %0, align 8
  %2 = load i64, i64* %0, align 8
  br label %bb1

bb1:                                              ; preds = %start
  ret i64 %2
}

; core::intrinsics::copy_nonoverlapping
; Function Attrs: inlinehint nonlazybind uwtable
define internal void @_ZN4core10intrinsics19copy_nonoverlapping17h9fa38aa3e8b86586E(i8* %src, i8* %dst, i64 %count) unnamed_addr #0 {
start:
  %0 = mul i64 %count, 1
  call void @llvm.memcpy.p0i8.p0i8.i64(i8* align 1 %dst, i8* align 1 %src, i64 %0, i1 false)
  ret void
}

; core::cmp::impls::<impl core::cmp::PartialOrd for usize>::lt
; Function Attrs: inlinehint nonlazybind uwtable
define internal zeroext i1 @"_ZN4core3cmp5impls57_$LT$impl$u20$core..cmp..PartialOrd$u20$for$u20$usize$GT$2lt17hea6a4f38458cc880E"(i64* align 8 %self, i64* align 8 %other) unnamed_addr #0 {
start:
  %_3 = load i64, i64* %self, align 8
  %_4 = load i64, i64* %other, align 8
  %0 = icmp ult i64 %_3, %_4
  ret i1 %0
}

; core::mem::replace
; Function Attrs: inlinehint nonlazybind uwtable
define internal i64 @_ZN4core3mem7replace17h45849d69e4455967E(i64* align 8 %dest, i64 %src) unnamed_addr #0 personality i32 (i32, i32, i64, %"unwind::libunwind::_Unwind_Exception"*, %"unwind::libunwind::_Unwind_Context"*)* @rust_eh_personality {
start:
  %0 = alloca { i8*, i32 }, align 8
  %_7 = alloca i8, align 1
  store i8 0, i8* %_7, align 1
  store i8 1, i8* %_7, align 1
; invoke core::ptr::read
  %result = invoke i64 @_ZN4core3ptr4read17h7782ca41d58af0f3E(i64* %dest)
          to label %bb1 unwind label %cleanup

bb6:                                              ; preds = %bb3, %cleanup
  %1 = load i8, i8* %_7, align 1, !range !4, !noundef !3
  %2 = trunc i8 %1 to i1
  br i1 %2, label %bb5, label %bb4

cleanup:                                          ; preds = %start
  %3 = landingpad { i8*, i32 }
          cleanup
  %4 = extractvalue { i8*, i32 } %3, 0
  %5 = extractvalue { i8*, i32 } %3, 1
  %6 = getelementptr inbounds { i8*, i32 }, { i8*, i32 }* %0, i32 0, i32 0
  store i8* %4, i8** %6, align 8
  %7 = getelementptr inbounds { i8*, i32 }, { i8*, i32 }* %0, i32 0, i32 1
  store i32 %5, i32* %7, align 8
  br label %bb6

bb1:                                              ; preds = %start
  store i8 0, i8* %_7, align 1
; invoke core::ptr::write
  invoke void @_ZN4core3ptr5write17hc5487ed8ad4b0e63E(i64* %dest, i64 %src)
          to label %bb2 unwind label %cleanup1

bb3:                                              ; preds = %cleanup1
  br label %bb6

cleanup1:                                         ; preds = %bb1
  %8 = landingpad { i8*, i32 }
          cleanup
  %9 = extractvalue { i8*, i32 } %8, 0
  %10 = extractvalue { i8*, i32 } %8, 1
  %11 = getelementptr inbounds { i8*, i32 }, { i8*, i32 }* %0, i32 0, i32 0
  store i8* %9, i8** %11, align 8
  %12 = getelementptr inbounds { i8*, i32 }, { i8*, i32 }* %0, i32 0, i32 1
  store i32 %10, i32* %12, align 8
  br label %bb3

bb2:                                              ; preds = %bb1
  ret i64 %result

bb4:                                              ; preds = %bb5, %bb6
  %13 = bitcast { i8*, i32 }* %0 to i8**
  %14 = load i8*, i8** %13, align 8
  %15 = getelementptr inbounds { i8*, i32 }, { i8*, i32 }* %0, i32 0, i32 1
  %16 = load i32, i32* %15, align 8
  %17 = insertvalue { i8*, i32 } undef, i8* %14, 0
  %18 = insertvalue { i8*, i32 } %17, i32 %16, 1
  resume { i8*, i32 } %18

bb5:                                              ; preds = %bb6
  br label %bb4
}

; core::num::<impl usize>::checked_mul
; Function Attrs: inlinehint nonlazybind uwtable
define internal { i64, i64 } @"_ZN4core3num23_$LT$impl$u20$usize$GT$11checked_mul17h2e568ca7cd94ed30E"(i64 %self, i64 %rhs) unnamed_addr #0 {
start:
  %0 = alloca { i64, i8 }, align 8
  %1 = alloca { i64, i8 }, align 8
  %2 = alloca i8, align 1
  %3 = alloca { i64, i64 }, align 8
  %4 = call { i64, i1 } @llvm.umul.with.overflow.i64(i64 %self, i64 %rhs)
  %5 = extractvalue { i64, i1 } %4, 0
  %6 = extractvalue { i64, i1 } %4, 1
  %7 = zext i1 %6 to i8
  %8 = bitcast { i64, i8 }* %0 to i64*
  store i64 %5, i64* %8, align 8
  %9 = getelementptr inbounds { i64, i8 }, { i64, i8 }* %0, i32 0, i32 1
  store i8 %7, i8* %9, align 8
  %10 = getelementptr inbounds { i64, i8 }, { i64, i8 }* %0, i32 0, i32 0
  %_5.0.i = load i64, i64* %10, align 8
  %11 = getelementptr inbounds { i64, i8 }, { i64, i8 }* %0, i32 0, i32 1
  %12 = load i8, i8* %11, align 8, !range !4, !noundef !3
  %_5.1.i = trunc i8 %12 to i1
  %13 = bitcast { i64, i8 }* %1 to i64*
  store i64 %_5.0.i, i64* %13, align 8
  %14 = getelementptr inbounds { i64, i8 }, { i64, i8 }* %1, i32 0, i32 1
  %15 = zext i1 %_5.1.i to i8
  store i8 %15, i8* %14, align 8
  %16 = getelementptr inbounds { i64, i8 }, { i64, i8 }* %1, i32 0, i32 0
  %17 = load i64, i64* %16, align 8
  %18 = getelementptr inbounds { i64, i8 }, { i64, i8 }* %1, i32 0, i32 1
  %19 = load i8, i8* %18, align 8, !range !4, !noundef !3
  %20 = trunc i8 %19 to i1
  %21 = zext i1 %20 to i8
  %22 = insertvalue { i64, i8 } undef, i64 %17, 0
  %23 = insertvalue { i64, i8 } %22, i8 %21, 1
  %_5.0 = extractvalue { i64, i8 } %23, 0
  %24 = extractvalue { i64, i8 } %23, 1
  %_5.1 = trunc i8 %24 to i1
  br label %bb1

bb1:                                              ; preds = %start
  %25 = call i1 @llvm.expect.i1(i1 %_5.1, i1 false)
  %26 = zext i1 %25 to i8
  store i8 %26, i8* %2, align 1
  %27 = load i8, i8* %2, align 1, !range !4, !noundef !3
  %_8 = trunc i8 %27 to i1
  br label %bb2

bb2:                                              ; preds = %bb1
  br i1 %_8, label %bb3, label %bb4

bb4:                                              ; preds = %bb2
  %28 = bitcast { i64, i64 }* %3 to %"core::option::Option<usize>::Some"*
  %29 = getelementptr inbounds %"core::option::Option<usize>::Some", %"core::option::Option<usize>::Some"* %28, i32 0, i32 1
  store i64 %_5.0, i64* %29, align 8
  %30 = bitcast { i64, i64 }* %3 to i64*
  store i64 1, i64* %30, align 8
  br label %bb5

bb3:                                              ; preds = %bb2
  %31 = bitcast { i64, i64 }* %3 to i64*
  store i64 0, i64* %31, align 8
  br label %bb5

bb5:                                              ; preds = %bb4, %bb3
  %32 = getelementptr inbounds { i64, i64 }, { i64, i64 }* %3, i32 0, i32 0
  %33 = load i64, i64* %32, align 8, !range !5, !noundef !3
  %34 = getelementptr inbounds { i64, i64 }, { i64, i64 }* %3, i32 0, i32 1
  %35 = load i64, i64* %34, align 8
  %36 = insertvalue { i64, i64 } undef, i64 %33, 0
  %37 = insertvalue { i64, i64 } %36, i64 %35, 1
  ret { i64, i64 } %37
}

; core::num::nonzero::NonZeroUsize::new_unchecked
; Function Attrs: inlinehint nonlazybind uwtable
define internal i64 @_ZN4core3num7nonzero12NonZeroUsize13new_unchecked17h14ec0caac6b4c32dE(i64 %n) unnamed_addr #0 {
start:
  %0 = alloca i64, align 8
  store i64 %n, i64* %0, align 8
  %1 = load i64, i64* %0, align 8, !range !6, !noundef !3
  ret i64 %1
}

; core::num::nonzero::NonZeroUsize::get
; Function Attrs: inlinehint nonlazybind uwtable
define internal i64 @_ZN4core3num7nonzero12NonZeroUsize3get17h2361ae2807855008E(i64 %self) unnamed_addr #0 {
start:
  ret i64 %self
}

; core::ops::function::FnOnce::call_once{{vtable.shim}}
; Function Attrs: inlinehint nonlazybind uwtable
define internal i32 @"_ZN4core3ops8function6FnOnce40call_once$u7b$$u7b$vtable.shim$u7d$$u7d$17hd201504823593192E"(i64** %_1) unnamed_addr #0 {
start:
  %_2 = alloca {}, align 1
  %0 = load i64*, i64** %_1, align 8, !nonnull !3, !noundef !3
; call core::ops::function::FnOnce::call_once
  %1 = call i32 @_ZN4core3ops8function6FnOnce9call_once17h4e5a900c1086025fE(i64* %0)
  br label %bb1

bb1:                                              ; preds = %start
  ret i32 %1
}

; core::ops::function::FnOnce::call_once
; Function Attrs: inlinehint nonlazybind uwtable
define internal i32 @_ZN4core3ops8function6FnOnce9call_once17h4e5a900c1086025fE(i64* %0) unnamed_addr #0 personality i32 (i32, i32, i64, %"unwind::libunwind::_Unwind_Exception"*, %"unwind::libunwind::_Unwind_Context"*)* @rust_eh_personality {
start:
  %1 = alloca { i8*, i32 }, align 8
  %_2 = alloca {}, align 1
  %_1 = alloca i64*, align 8
  store i64* %0, i64** %_1, align 8
; invoke std::rt::lang_start::{{closure}}
  %2 = invoke i32 @"_ZN3std2rt10lang_start28_$u7b$$u7b$closure$u7d$$u7d$17hda6a19776aa65e0fE"(i64** align 8 %_1)
          to label %bb1 unwind label %cleanup

bb3:                                              ; preds = %cleanup
  br label %bb4

cleanup:                                          ; preds = %start
  %3 = landingpad { i8*, i32 }
          cleanup
  %4 = extractvalue { i8*, i32 } %3, 0
  %5 = extractvalue { i8*, i32 } %3, 1
  %6 = getelementptr inbounds { i8*, i32 }, { i8*, i32 }* %1, i32 0, i32 0
  store i8* %4, i8** %6, align 8
  %7 = getelementptr inbounds { i8*, i32 }, { i8*, i32 }* %1, i32 0, i32 1
  store i32 %5, i32* %7, align 8
  br label %bb3

bb1:                                              ; preds = %start
  br label %bb2

bb4:                                              ; preds = %bb3
  %8 = bitcast { i8*, i32 }* %1 to i8**
  %9 = load i8*, i8** %8, align 8
  %10 = getelementptr inbounds { i8*, i32 }, { i8*, i32 }* %1, i32 0, i32 1
  %11 = load i32, i32* %10, align 8
  %12 = insertvalue { i8*, i32 } undef, i8* %9, 0
  %13 = insertvalue { i8*, i32 } %12, i32 %11, 1
  resume { i8*, i32 } %13

bb2:                                              ; preds = %bb1
  ret i32 %2
}

; core::ops::function::FnOnce::call_once
; Function Attrs: inlinehint nonlazybind uwtable
define internal void @_ZN4core3ops8function6FnOnce9call_once17h8f6499d73692acfaE(void ()* %_1) unnamed_addr #0 {
start:
  %_2 = alloca {}, align 1
  call void %_1()
  br label %bb1

bb1:                                              ; preds = %start
  ret void
}

; core::ptr::slice_from_raw_parts_mut
; Function Attrs: inlinehint nonlazybind uwtable
define internal { [0 x i8]*, i64 } @_ZN4core3ptr24slice_from_raw_parts_mut17hbf4b87a8a9a7985cE(i8* %data, i64 %len) unnamed_addr #0 {
start:
  %0 = bitcast i8* %data to {}*
  br label %bb1

bb1:                                              ; preds = %start
; call core::ptr::metadata::from_raw_parts_mut
  %1 = call { [0 x i8]*, i64 } @_ZN4core3ptr8metadata18from_raw_parts_mut17h56ce76a409dc03e9E({}* %0, i64 %len)
  %2 = extractvalue { [0 x i8]*, i64 } %1, 0
  %3 = extractvalue { [0 x i8]*, i64 } %1, 1
  br label %bb2

bb2:                                              ; preds = %bb1
  %4 = insertvalue { [0 x i8]*, i64 } undef, [0 x i8]* %2, 0
  %5 = insertvalue { [0 x i8]*, i64 } %4, i64 %3, 1
  ret { [0 x i8]*, i64 } %5
}

; core::ptr::drop_in_place<alloc::string::String>
; Function Attrs: nonlazybind uwtable
define internal void @"_ZN4core3ptr42drop_in_place$LT$alloc..string..String$GT$17h649712bd44f48efbE"(%"alloc::string::String"* %_1) unnamed_addr #2 {
start:
  %0 = bitcast %"alloc::string::String"* %_1 to %"alloc::vec::Vec<u8>"*
; call core::ptr::drop_in_place<alloc::vec::Vec<u8>>
  call void @"_ZN4core3ptr46drop_in_place$LT$alloc..vec..Vec$LT$u8$GT$$GT$17h46dc0d96448876f6E"(%"alloc::vec::Vec<u8>"* %0)
  br label %bb1

bb1:                                              ; preds = %start
  ret void
}

; core::ptr::drop_in_place<alloc::vec::Vec<u8>>
; Function Attrs: nonlazybind uwtable
define internal void @"_ZN4core3ptr46drop_in_place$LT$alloc..vec..Vec$LT$u8$GT$$GT$17h46dc0d96448876f6E"(%"alloc::vec::Vec<u8>"* %_1) unnamed_addr #2 personality i32 (i32, i32, i64, %"unwind::libunwind::_Unwind_Exception"*, %"unwind::libunwind::_Unwind_Context"*)* @rust_eh_personality {
start:
  %0 = alloca { i8*, i32 }, align 8
; invoke <alloc::vec::Vec<T,A> as core::ops::drop::Drop>::drop
  invoke void @"_ZN70_$LT$alloc..vec..Vec$LT$T$C$A$GT$$u20$as$u20$core..ops..drop..Drop$GT$4drop17h3e3fb27efdb782d1E"(%"alloc::vec::Vec<u8>"* align 8 %_1)
          to label %bb4 unwind label %cleanup

bb3:                                              ; preds = %cleanup
  %1 = bitcast %"alloc::vec::Vec<u8>"* %_1 to { i8*, i64 }*
; invoke core::ptr::drop_in_place<alloc::raw_vec::RawVec<u8>>
  invoke void @"_ZN4core3ptr53drop_in_place$LT$alloc..raw_vec..RawVec$LT$u8$GT$$GT$17h8465d97fbd6e344aE"({ i8*, i64 }* %1) #14
          to label %bb1 unwind label %abort

cleanup:                                          ; preds = %start
  %2 = landingpad { i8*, i32 }
          cleanup
  %3 = extractvalue { i8*, i32 } %2, 0
  %4 = extractvalue { i8*, i32 } %2, 1
  %5 = getelementptr inbounds { i8*, i32 }, { i8*, i32 }* %0, i32 0, i32 0
  store i8* %3, i8** %5, align 8
  %6 = getelementptr inbounds { i8*, i32 }, { i8*, i32 }* %0, i32 0, i32 1
  store i32 %4, i32* %6, align 8
  br label %bb3

bb4:                                              ; preds = %start
  %7 = bitcast %"alloc::vec::Vec<u8>"* %_1 to { i8*, i64 }*
; call core::ptr::drop_in_place<alloc::raw_vec::RawVec<u8>>
  call void @"_ZN4core3ptr53drop_in_place$LT$alloc..raw_vec..RawVec$LT$u8$GT$$GT$17h8465d97fbd6e344aE"({ i8*, i64 }* %7)
  br label %bb2

abort:                                            ; preds = %bb3
  %8 = landingpad { i8*, i32 }
          cleanup
; call core::panicking::panic_no_unwind
  call void @_ZN4core9panicking15panic_no_unwind17h133ff180a0ae6324E() #15
  unreachable

bb1:                                              ; preds = %bb3
  %9 = bitcast { i8*, i32 }* %0 to i8**
  %10 = load i8*, i8** %9, align 8
  %11 = getelementptr inbounds { i8*, i32 }, { i8*, i32 }* %0, i32 0, i32 1
  %12 = load i32, i32* %11, align 8
  %13 = insertvalue { i8*, i32 } undef, i8* %10, 0
  %14 = insertvalue { i8*, i32 } %13, i32 %12, 1
  resume { i8*, i32 } %14

bb2:                                              ; preds = %bb4
  ret void
}

; core::ptr::read
; Function Attrs: inlinehint nonlazybind uwtable
define internal i64 @_ZN4core3ptr4read17h7782ca41d58af0f3E(i64* %src) unnamed_addr #0 {
start:
  %0 = alloca i64, align 8
  %tmp = alloca i64, align 8
  %1 = bitcast i64* %0 to {}*
  %2 = load i64, i64* %0, align 8
  store i64 %2, i64* %tmp, align 8
  br label %bb1

bb1:                                              ; preds = %start
  br label %bb2

bb2:                                              ; preds = %bb1
  %3 = bitcast i64* %tmp to i8*
  %4 = bitcast i64* %src to i8*
  call void @llvm.memcpy.p0i8.p0i8.i64(i8* align 8 %3, i8* align 8 %4, i64 8, i1 false)
  %_6 = load i64, i64* %tmp, align 8
  br label %bb3

bb3:                                              ; preds = %bb2
  ret i64 %_6
}

; core::ptr::drop_in_place<alloc::raw_vec::RawVec<u8>>
; Function Attrs: nonlazybind uwtable
define internal void @"_ZN4core3ptr53drop_in_place$LT$alloc..raw_vec..RawVec$LT$u8$GT$$GT$17h8465d97fbd6e344aE"({ i8*, i64 }* %_1) unnamed_addr #2 {
start:
; call <alloc::raw_vec::RawVec<T,A> as core::ops::drop::Drop>::drop
  call void @"_ZN77_$LT$alloc..raw_vec..RawVec$LT$T$C$A$GT$$u20$as$u20$core..ops..drop..Drop$GT$4drop17h9a2707b14b1165c7E"({ i8*, i64 }* align 8 %_1)
  br label %bb1

bb1:                                              ; preds = %start
  ret void
}

; core::ptr::write
; Function Attrs: inlinehint nonlazybind uwtable
define internal void @_ZN4core3ptr5write17hc5487ed8ad4b0e63E(i64* %dst, i64 %0) unnamed_addr #0 {
start:
  %src = alloca i64, align 8
  store i64 %0, i64* %src, align 8
  %1 = bitcast i64* %dst to i8*
  %2 = bitcast i64* %src to i8*
  call void @llvm.memcpy.p0i8.p0i8.i64(i8* align 8 %1, i8* align 8 %2, i64 8, i1 false)
  ret void
}

; core::ptr::unique::Unique<T>::new_unchecked
; Function Attrs: inlinehint nonlazybind uwtable
define internal i8* @"_ZN4core3ptr6unique15Unique$LT$T$GT$13new_unchecked17h7b42ba31dfb777abE"(i8* %ptr) unnamed_addr #0 {
start:
  %0 = alloca i8*, align 8
  store i8* %ptr, i8** %0, align 8
  %1 = load i8*, i8** %0, align 8, !nonnull !3, !noundef !3
  ret i8* %1
}

; core::ptr::unique::Unique<T>::cast
; Function Attrs: inlinehint nonlazybind uwtable
define internal i8* @"_ZN4core3ptr6unique15Unique$LT$T$GT$4cast17hec3e2ee2f71fa8c1E"(i8* %self) unnamed_addr #0 {
start:
; call core::ptr::unique::Unique<T>::as_ptr
  %_3 = call i8* @"_ZN4core3ptr6unique15Unique$LT$T$GT$6as_ptr17h999fb5059954691eE"(i8* %self)
  br label %bb1

bb1:                                              ; preds = %start
; call core::ptr::unique::Unique<T>::new_unchecked
  %0 = call i8* @"_ZN4core3ptr6unique15Unique$LT$T$GT$13new_unchecked17h7b42ba31dfb777abE"(i8* %_3)
  br label %bb2

bb2:                                              ; preds = %bb1
  ret i8* %0
}

; core::ptr::unique::Unique<T>::as_ptr
; Function Attrs: inlinehint nonlazybind uwtable
define internal i8* @"_ZN4core3ptr6unique15Unique$LT$T$GT$6as_ptr17h999fb5059954691eE"(i8* %self) unnamed_addr #0 {
start:
  ret i8* %self
}

; core::ptr::unique::Unique<T>::dangling
; Function Attrs: inlinehint nonlazybind uwtable
define internal i8* @"_ZN4core3ptr6unique15Unique$LT$T$GT$8dangling17h6f4fc22d53e810c9E"() unnamed_addr #0 {
start:
  br label %bb1

bb1:                                              ; preds = %start
  %_1 = inttoptr i64 1 to i8*
; call core::ptr::unique::Unique<T>::new_unchecked
  %0 = call i8* @"_ZN4core3ptr6unique15Unique$LT$T$GT$13new_unchecked17h7b42ba31dfb777abE"(i8* %_1)
  br label %bb2

bb2:                                              ; preds = %bb1
  ret i8* %0
}

; core::ptr::mut_ptr::<impl *mut T>::guaranteed_eq
; Function Attrs: inlinehint nonlazybind uwtable
define internal zeroext i1 @"_ZN4core3ptr7mut_ptr31_$LT$impl$u20$$BP$mut$u20$T$GT$13guaranteed_eq17h8ec5993bdb35b29eE"(i8* %self, i8* %other) unnamed_addr #0 {
start:
  %0 = alloca i8, align 1
  %1 = icmp eq i8* %self, %other
  %2 = zext i1 %1 to i8
  store i8 %2, i8* %0, align 1
  %3 = load i8, i8* %0, align 1, !range !4, !noundef !3
  %4 = trunc i8 %3 to i1
  br label %bb1

bb1:                                              ; preds = %start
  ret i1 %4
}

; core::ptr::mut_ptr::<impl *mut T>::is_null
; Function Attrs: inlinehint nonlazybind uwtable
define internal zeroext i1 @"_ZN4core3ptr7mut_ptr31_$LT$impl$u20$$BP$mut$u20$T$GT$7is_null17h19256406ac0bfa9eE"(i8* %self) unnamed_addr #0 {
start:
  br label %bb1

bb1:                                              ; preds = %start
; call core::ptr::mut_ptr::<impl *mut T>::guaranteed_eq
  %0 = call zeroext i1 @"_ZN4core3ptr7mut_ptr31_$LT$impl$u20$$BP$mut$u20$T$GT$13guaranteed_eq17h8ec5993bdb35b29eE"(i8* %self, i8* null)
  br label %bb2

bb2:                                              ; preds = %bb1
  ret i1 %0
}

; core::ptr::drop_in_place<std::rt::lang_start<()>::{{closure}}>
; Function Attrs: inlinehint nonlazybind uwtable
define internal void @"_ZN4core3ptr85drop_in_place$LT$std..rt..lang_start$LT$$LP$$RP$$GT$..$u7b$$u7b$closure$u7d$$u7d$$GT$17h009eb9b35ae26553E"(i64** %_1) unnamed_addr #0 {
start:
  ret void
}

; core::ptr::metadata::from_raw_parts_mut
; Function Attrs: inlinehint nonlazybind uwtable
define internal { [0 x i8]*, i64 } @_ZN4core3ptr8metadata18from_raw_parts_mut17h56ce76a409dc03e9E({}* %data_address, i64 %metadata) unnamed_addr #0 {
start:
  %_4 = alloca { i8*, i64 }, align 8
  %_3 = alloca %"core::ptr::metadata::PtrRepr<[u8]>", align 8
  %0 = bitcast { i8*, i64 }* %_4 to {}**
  store {}* %data_address, {}** %0, align 8
  %1 = getelementptr inbounds { i8*, i64 }, { i8*, i64 }* %_4, i32 0, i32 1
  store i64 %metadata, i64* %1, align 8
  %2 = bitcast %"core::ptr::metadata::PtrRepr<[u8]>"* %_3 to { i8*, i64 }*
  %3 = getelementptr inbounds { i8*, i64 }, { i8*, i64 }* %_4, i32 0, i32 0
  %4 = load i8*, i8** %3, align 8
  %5 = getelementptr inbounds { i8*, i64 }, { i8*, i64 }* %_4, i32 0, i32 1
  %6 = load i64, i64* %5, align 8
  %7 = getelementptr inbounds { i8*, i64 }, { i8*, i64 }* %2, i32 0, i32 0
  store i8* %4, i8** %7, align 8
  %8 = getelementptr inbounds { i8*, i64 }, { i8*, i64 }* %2, i32 0, i32 1
  store i64 %6, i64* %8, align 8
  %9 = bitcast %"core::ptr::metadata::PtrRepr<[u8]>"* %_3 to { [0 x i8]*, i64 }*
  %10 = getelementptr inbounds { [0 x i8]*, i64 }, { [0 x i8]*, i64 }* %9, i32 0, i32 0
  %11 = load [0 x i8]*, [0 x i8]** %10, align 8
  %12 = getelementptr inbounds { [0 x i8]*, i64 }, { [0 x i8]*, i64 }* %9, i32 0, i32 1
  %13 = load i64, i64* %12, align 8
  %14 = insertvalue { [0 x i8]*, i64 } undef, [0 x i8]* %11, 0
  %15 = insertvalue { [0 x i8]*, i64 } %14, i64 %13, 1
  ret { [0 x i8]*, i64 } %15
}

; core::ptr::non_null::NonNull<T>::new_unchecked
; Function Attrs: inlinehint nonlazybind uwtable
define internal i8* @"_ZN4core3ptr8non_null16NonNull$LT$T$GT$13new_unchecked17h256c3751eee09a7fE"(i8* %ptr) unnamed_addr #0 {
start:
  %0 = alloca i8*, align 8
  store i8* %ptr, i8** %0, align 8
  %1 = load i8*, i8** %0, align 8, !nonnull !3, !noundef !3
  ret i8* %1
}

; core::ptr::non_null::NonNull<T>::new_unchecked
; Function Attrs: inlinehint nonlazybind uwtable
define internal { i8*, i64 } @"_ZN4core3ptr8non_null16NonNull$LT$T$GT$13new_unchecked17h7744f2ecd646ababE"([0 x i8]* %ptr.0, i64 %ptr.1) unnamed_addr #0 {
start:
  %0 = alloca { i8*, i64 }, align 8
  %1 = bitcast { i8*, i64 }* %0 to { [0 x i8]*, i64 }*
  %2 = getelementptr inbounds { [0 x i8]*, i64 }, { [0 x i8]*, i64 }* %1, i32 0, i32 0
  store [0 x i8]* %ptr.0, [0 x i8]** %2, align 8
  %3 = getelementptr inbounds { [0 x i8]*, i64 }, { [0 x i8]*, i64 }* %1, i32 0, i32 1
  store i64 %ptr.1, i64* %3, align 8
  %4 = getelementptr inbounds { i8*, i64 }, { i8*, i64 }* %0, i32 0, i32 0
  %5 = load i8*, i8** %4, align 8, !nonnull !3, !noundef !3
  %6 = getelementptr inbounds { i8*, i64 }, { i8*, i64 }* %0, i32 0, i32 1
  %7 = load i64, i64* %6, align 8
  %8 = insertvalue { i8*, i64 } undef, i8* %5, 0
  %9 = insertvalue { i8*, i64 } %8, i64 %7, 1
  ret { i8*, i64 } %9
}

; core::ptr::non_null::NonNull<T>::new
; Function Attrs: inlinehint nonlazybind uwtable
define internal i8* @"_ZN4core3ptr8non_null16NonNull$LT$T$GT$3new17hdb16336008d24da0E"(i8* %ptr) unnamed_addr #0 {
start:
  %0 = alloca i8*, align 8
; call core::ptr::mut_ptr::<impl *mut T>::is_null
  %_3 = call zeroext i1 @"_ZN4core3ptr7mut_ptr31_$LT$impl$u20$$BP$mut$u20$T$GT$7is_null17h19256406ac0bfa9eE"(i8* %ptr)
  br label %bb1

bb1:                                              ; preds = %start
  %_2 = xor i1 %_3, true
  br i1 %_2, label %bb2, label %bb4

bb4:                                              ; preds = %bb1
  %1 = bitcast i8** %0 to {}**
  store {}* null, {}** %1, align 8
  br label %bb5

bb2:                                              ; preds = %bb1
; call core::ptr::non_null::NonNull<T>::new_unchecked
  %_5 = call i8* @"_ZN4core3ptr8non_null16NonNull$LT$T$GT$13new_unchecked17h256c3751eee09a7fE"(i8* %ptr)
  br label %bb3

bb3:                                              ; preds = %bb2
  store i8* %_5, i8** %0, align 8
  br label %bb5

bb5:                                              ; preds = %bb4, %bb3
  %2 = load i8*, i8** %0, align 8
  ret i8* %2
}

; core::ptr::non_null::NonNull<T>::cast
; Function Attrs: inlinehint nonlazybind uwtable
define internal i8* @"_ZN4core3ptr8non_null16NonNull$LT$T$GT$4cast17hc8741d4ccbebf302E"(i8* %self.0, i64 %self.1) unnamed_addr #0 {
start:
; call core::ptr::non_null::NonNull<T>::as_ptr
  %0 = call { [0 x i8]*, i64 } @"_ZN4core3ptr8non_null16NonNull$LT$T$GT$6as_ptr17h5d387d8f238470a9E"(i8* %self.0, i64 %self.1)
  %_3.0 = extractvalue { [0 x i8]*, i64 } %0, 0
  %_3.1 = extractvalue { [0 x i8]*, i64 } %0, 1
  br label %bb1

bb1:                                              ; preds = %start
  %_2 = bitcast [0 x i8]* %_3.0 to i8*
; call core::ptr::non_null::NonNull<T>::new_unchecked
  %1 = call i8* @"_ZN4core3ptr8non_null16NonNull$LT$T$GT$13new_unchecked17h256c3751eee09a7fE"(i8* %_2)
  br label %bb2

bb2:                                              ; preds = %bb1
  ret i8* %1
}

; core::ptr::non_null::NonNull<T>::as_ptr
; Function Attrs: inlinehint nonlazybind uwtable
define internal i8* @"_ZN4core3ptr8non_null16NonNull$LT$T$GT$6as_ptr17h1665b628b2ca40dfE"(i8* %self) unnamed_addr #0 {
start:
  ret i8* %self
}

; core::ptr::non_null::NonNull<T>::as_ptr
; Function Attrs: inlinehint nonlazybind uwtable
define internal { [0 x i8]*, i64 } @"_ZN4core3ptr8non_null16NonNull$LT$T$GT$6as_ptr17h5d387d8f238470a9E"(i8* %self.0, i64 %self.1) unnamed_addr #0 {
start:
  %_2.0 = bitcast i8* %self.0 to [0 x i8]*
  %0 = insertvalue { [0 x i8]*, i64 } undef, [0 x i8]* %_2.0, 0
  %1 = insertvalue { [0 x i8]*, i64 } %0, i64 %self.1, 1
  ret { [0 x i8]*, i64 } %1
}

; core::ptr::non_null::NonNull<[T]>::slice_from_raw_parts
; Function Attrs: inlinehint nonlazybind uwtable
define internal { i8*, i64 } @"_ZN4core3ptr8non_null26NonNull$LT$$u5b$T$u5d$$GT$20slice_from_raw_parts17h5859386bc9ba83c2E"(i8* %data, i64 %len) unnamed_addr #0 {
start:
; call core::ptr::non_null::NonNull<T>::as_ptr
  %_4 = call i8* @"_ZN4core3ptr8non_null16NonNull$LT$T$GT$6as_ptr17h1665b628b2ca40dfE"(i8* %data)
  br label %bb1

bb1:                                              ; preds = %start
; call core::ptr::slice_from_raw_parts_mut
  %0 = call { [0 x i8]*, i64 } @_ZN4core3ptr24slice_from_raw_parts_mut17hbf4b87a8a9a7985cE(i8* %_4, i64 %len)
  %_3.0 = extractvalue { [0 x i8]*, i64 } %0, 0
  %_3.1 = extractvalue { [0 x i8]*, i64 } %0, 1
  br label %bb2

bb2:                                              ; preds = %bb1
; call core::ptr::non_null::NonNull<T>::new_unchecked
  %1 = call { i8*, i64 } @"_ZN4core3ptr8non_null16NonNull$LT$T$GT$13new_unchecked17h7744f2ecd646ababE"([0 x i8]* %_3.0, i64 %_3.1)
  %2 = extractvalue { i8*, i64 } %1, 0
  %3 = extractvalue { i8*, i64 } %1, 1
  br label %bb3

bb3:                                              ; preds = %bb2
  %4 = insertvalue { i8*, i64 } undef, i8* %2, 0
  %5 = insertvalue { i8*, i64 } %4, i64 %3, 1
  ret { i8*, i64 } %5
}

; core::ptr::const_ptr::<impl *const T>::copy_to_nonoverlapping
; Function Attrs: inlinehint nonlazybind uwtable
define internal void @"_ZN4core3ptr9const_ptr33_$LT$impl$u20$$BP$const$u20$T$GT$22copy_to_nonoverlapping17h568bb051dd000945E"(i8* %self, i8* %dest, i64 %count) unnamed_addr #0 {
start:
; call core::intrinsics::copy_nonoverlapping
  call void @_ZN4core10intrinsics19copy_nonoverlapping17h9fa38aa3e8b86586E(i8* %self, i8* %dest, i64 %count)
  br label %bb1

bb1:                                              ; preds = %start
  ret void
}

; core::str::converts::from_utf8_unchecked_mut
; Function Attrs: inlinehint nonlazybind uwtable
define internal { [0 x i8]*, i64 } @_ZN4core3str8converts23from_utf8_unchecked_mut17h9b32ca2e8f3a1f4dE([0 x i8]* align 1 %v.0, i64 %v.1) unnamed_addr #0 {
start:
  %0 = insertvalue { [0 x i8]*, i64 } undef, [0 x i8]* %v.0, 0
  %1 = insertvalue { [0 x i8]*, i64 } %0, i64 %v.1, 1
  ret { [0 x i8]*, i64 } %1
}

; core::hint::unreachable_unchecked
; Function Attrs: inlinehint noreturn nonlazybind uwtable
define internal void @_ZN4core4hint21unreachable_unchecked17h8be5f49168d2c017E() unnamed_addr #3 {
start:
  unreachable
}

; core::hint::black_box
; Function Attrs: inlinehint nonlazybind uwtable
define internal void @_ZN4core4hint9black_box17h4e84916163528451E() unnamed_addr #0 {
start:
  call void asm sideeffect "", "r,~{memory}"({}* undef), !srcloc !7
  br label %bb1

bb1:                                              ; preds = %start
  ret void
}

; core::iter::range::<impl core::iter::traits::iterator::Iterator for core::ops::range::Range<A>>::next
; Function Attrs: inlinehint nonlazybind uwtable
define internal { i64, i64 } @"_ZN4core4iter5range101_$LT$impl$u20$core..iter..traits..iterator..Iterator$u20$for$u20$core..ops..range..Range$LT$A$GT$$GT$4next17h4df0746603a02107E"({ i64, i64 }* align 8 %self) unnamed_addr #0 {
start:
; call <core::ops::range::Range<T> as core::iter::range::RangeIteratorImpl>::spec_next
  %0 = call { i64, i64 } @"_ZN89_$LT$core..ops..range..Range$LT$T$GT$$u20$as$u20$core..iter..range..RangeIteratorImpl$GT$9spec_next17h7ac08d3ac0e4a345E"({ i64, i64 }* align 8 %self)
  %1 = extractvalue { i64, i64 } %0, 0
  %2 = extractvalue { i64, i64 } %0, 1
  br label %bb1

bb1:                                              ; preds = %start
  %3 = insertvalue { i64, i64 } undef, i64 %1, 0
  %4 = insertvalue { i64, i64 } %3, i64 %2, 1
  ret { i64, i64 } %4
}

; core::alloc::layout::Layout::from_size_align_unchecked
; Function Attrs: inlinehint nonlazybind uwtable
define internal { i64, i64 } @_ZN4core5alloc6layout6Layout25from_size_align_unchecked17h2d996895dfd169a8E(i64 %size, i64 %align) unnamed_addr #0 {
start:
  %0 = alloca { i64, i64 }, align 8
; call core::num::nonzero::NonZeroUsize::new_unchecked
  %_4 = call i64 @_ZN4core3num7nonzero12NonZeroUsize13new_unchecked17h14ec0caac6b4c32dE(i64 %align), !range !6
  br label %bb1

bb1:                                              ; preds = %start
  %1 = bitcast { i64, i64 }* %0 to i64*
  store i64 %size, i64* %1, align 8
  %2 = getelementptr inbounds { i64, i64 }, { i64, i64 }* %0, i32 0, i32 1
  store i64 %_4, i64* %2, align 8
  %3 = getelementptr inbounds { i64, i64 }, { i64, i64 }* %0, i32 0, i32 0
  %4 = load i64, i64* %3, align 8
  %5 = getelementptr inbounds { i64, i64 }, { i64, i64 }* %0, i32 0, i32 1
  %6 = load i64, i64* %5, align 8, !range !6, !noundef !3
  %7 = insertvalue { i64, i64 } undef, i64 %4, 0
  %8 = insertvalue { i64, i64 } %7, i64 %6, 1
  ret { i64, i64 } %8
}

; core::alloc::layout::Layout::size
; Function Attrs: inlinehint nonlazybind uwtable
define internal i64 @_ZN4core5alloc6layout6Layout4size17h5764bde82d290296E({ i64, i64 }* align 8 %self) unnamed_addr #0 {
start:
  %0 = bitcast { i64, i64 }* %self to i64*
  %1 = load i64, i64* %0, align 8
  ret i64 %1
}

; core::alloc::layout::Layout::align
; Function Attrs: inlinehint nonlazybind uwtable
define internal i64 @_ZN4core5alloc6layout6Layout5align17h4d17d7ce729107b6E({ i64, i64 }* align 8 %self) unnamed_addr #0 {
start:
  %0 = getelementptr inbounds { i64, i64 }, { i64, i64 }* %self, i32 0, i32 1
  %_2 = load i64, i64* %0, align 8, !range !6, !noundef !3
; call core::num::nonzero::NonZeroUsize::get
  %1 = call i64 @_ZN4core3num7nonzero12NonZeroUsize3get17h2361ae2807855008E(i64 %_2)
  br label %bb1

bb1:                                              ; preds = %start
  ret i64 %1
}

; core::alloc::layout::Layout::array
; Function Attrs: inlinehint nonlazybind uwtable
define internal { i64, i64 } @_ZN4core5alloc6layout6Layout5array17h355012a979476f41E(i64 %n) unnamed_addr #0 {
start:
  %_3 = alloca { i64, i64 }, align 8
  %0 = alloca { i64, i64 }, align 8
  br label %bb1

bb1:                                              ; preds = %start
; call core::num::<impl usize>::checked_mul
  %1 = call { i64, i64 } @"_ZN4core3num23_$LT$impl$u20$usize$GT$11checked_mul17h2e568ca7cd94ed30E"(i64 1, i64 %n)
  %_5.0 = extractvalue { i64, i64 } %1, 0
  %_5.1 = extractvalue { i64, i64 } %1, 1
  br label %bb2

bb2:                                              ; preds = %bb1
; call core::option::Option<T>::ok_or
  %2 = call { i64, i64 } @"_ZN4core6option15Option$LT$T$GT$5ok_or17h2b00058b4213febcE"(i64 %_5.0, i64 %_5.1)
  %_4.0 = extractvalue { i64, i64 } %2, 0
  %_4.1 = extractvalue { i64, i64 } %2, 1
  br label %bb3

bb3:                                              ; preds = %bb2
; call <core::result::Result<T,E> as core::ops::try_trait::Try>::branch
  %3 = call { i64, i64 } @"_ZN79_$LT$core..result..Result$LT$T$C$E$GT$$u20$as$u20$core..ops..try_trait..Try$GT$6branch17hcd5d411e38aac4f8E"(i64 %_4.0, i64 %_4.1)
  store { i64, i64 } %3, { i64, i64 }* %_3, align 8
  br label %bb4

bb4:                                              ; preds = %bb3
  %4 = bitcast { i64, i64 }* %_3 to i64*
  %_9 = load i64, i64* %4, align 8, !range !5, !noundef !3
  switch i64 %_9, label %bb6 [
    i64 0, label %bb5
    i64 1, label %bb7
  ]

bb6:                                              ; preds = %bb4
  unreachable

bb5:                                              ; preds = %bb4
  %5 = bitcast { i64, i64 }* %_3 to %"core::ops::control_flow::ControlFlow<core::result::Result<core::convert::Infallible, core::alloc::layout::LayoutError>, usize>::Continue"*
  %6 = getelementptr inbounds %"core::ops::control_flow::ControlFlow<core::result::Result<core::convert::Infallible, core::alloc::layout::LayoutError>, usize>::Continue", %"core::ops::control_flow::ControlFlow<core::result::Result<core::convert::Infallible, core::alloc::layout::LayoutError>, usize>::Continue"* %5, i32 0, i32 1
  %val = load i64, i64* %6, align 8
  br label %bb9

bb7:                                              ; preds = %bb4
; call <core::result::Result<T,F> as core::ops::try_trait::FromResidual<core::result::Result<core::convert::Infallible,E>>>::from_residual
  %7 = call { i64, i64 } @"_ZN153_$LT$core..result..Result$LT$T$C$F$GT$$u20$as$u20$core..ops..try_trait..FromResidual$LT$core..result..Result$LT$core..convert..Infallible$C$E$GT$$GT$$GT$13from_residual17hace7b5fbe12e07b0E"(%"core::panic::location::Location"* align 8 bitcast (<{ i8*, [16 x i8] }>* @alloc37 to %"core::panic::location::Location"*))
  store { i64, i64 } %7, { i64, i64 }* %0, align 8
  br label %bb8

bb8:                                              ; preds = %bb7
  br label %bb11

bb11:                                             ; preds = %bb10, %bb8
  %8 = getelementptr inbounds { i64, i64 }, { i64, i64 }* %0, i32 0, i32 0
  %9 = load i64, i64* %8, align 8
  %10 = getelementptr inbounds { i64, i64 }, { i64, i64 }* %0, i32 0, i32 1
  %11 = load i64, i64* %10, align 8
  %12 = insertvalue { i64, i64 } undef, i64 %9, 0
  %13 = insertvalue { i64, i64 } %12, i64 %11, 1
  ret { i64, i64 } %13

bb9:                                              ; preds = %bb5
; call core::alloc::layout::Layout::from_size_align_unchecked
  %14 = call { i64, i64 } @_ZN4core5alloc6layout6Layout25from_size_align_unchecked17h2d996895dfd169a8E(i64 %val, i64 1)
  %_13.0 = extractvalue { i64, i64 } %14, 0
  %_13.1 = extractvalue { i64, i64 } %14, 1
  br label %bb10

bb10:                                             ; preds = %bb9
  %15 = getelementptr inbounds { i64, i64 }, { i64, i64 }* %0, i32 0, i32 0
  store i64 %_13.0, i64* %15, align 8
  %16 = getelementptr inbounds { i64, i64 }, { i64, i64 }* %0, i32 0, i32 1
  store i64 %_13.1, i64* %16, align 8
  br label %bb11
}

; core::alloc::layout::Layout::dangling
; Function Attrs: inlinehint nonlazybind uwtable
define internal i8* @_ZN4core5alloc6layout6Layout8dangling17h86ba1e30a489230bE({ i64, i64 }* align 8 %self) unnamed_addr #0 {
start:
; call core::alloc::layout::Layout::align
  %_3 = call i64 @_ZN4core5alloc6layout6Layout5align17h4d17d7ce729107b6E({ i64, i64 }* align 8 %self)
  br label %bb1

bb1:                                              ; preds = %start
  %_2 = inttoptr i64 %_3 to i8*
; call core::ptr::non_null::NonNull<T>::new_unchecked
  %0 = call i8* @"_ZN4core3ptr8non_null16NonNull$LT$T$GT$13new_unchecked17h256c3751eee09a7fE"(i8* %_2)
  br label %bb2

bb2:                                              ; preds = %bb1
  ret i8* %0
}

; core::clone::impls::<impl core::clone::Clone for usize>::clone
; Function Attrs: inlinehint nonlazybind uwtable
define internal i64 @"_ZN4core5clone5impls54_$LT$impl$u20$core..clone..Clone$u20$for$u20$usize$GT$5clone17h0fca3c20a2a2ed7fE"(i64* align 8 %self) unnamed_addr #0 {
start:
  %0 = load i64, i64* %self, align 8
  ret i64 %0
}

; core::slice::<impl [T]>::len
; Function Attrs: inlinehint nonlazybind uwtable
define internal i64 @"_ZN4core5slice29_$LT$impl$u20$$u5b$T$u5d$$GT$3len17h75e6447c522d4d70E"([0 x i8]* align 1 %self.0, i64 %self.1) unnamed_addr #0 {
start:
  %_2 = alloca %"core::ptr::metadata::PtrRepr<[u8]>", align 8
  %0 = bitcast %"core::ptr::metadata::PtrRepr<[u8]>"* %_2 to { [0 x i8]*, i64 }*
  %1 = getelementptr inbounds { [0 x i8]*, i64 }, { [0 x i8]*, i64 }* %0, i32 0, i32 0
  store [0 x i8]* %self.0, [0 x i8]** %1, align 8
  %2 = getelementptr inbounds { [0 x i8]*, i64 }, { [0 x i8]*, i64 }* %0, i32 0, i32 1
  store i64 %self.1, i64* %2, align 8
  %3 = bitcast %"core::ptr::metadata::PtrRepr<[u8]>"* %_2 to { i8*, i64 }*
  %4 = getelementptr inbounds { i8*, i64 }, { i8*, i64 }* %3, i32 0, i32 1
  %5 = load i64, i64* %4, align 8
  ret i64 %5
}

; core::slice::<impl [T]>::as_ptr
; Function Attrs: inlinehint nonlazybind uwtable
define internal i8* @"_ZN4core5slice29_$LT$impl$u20$$u5b$T$u5d$$GT$6as_ptr17hff1348a70deb00e1E"([0 x i8]* align 1 %self.0, i64 %self.1) unnamed_addr #0 {
start:
  %0 = bitcast [0 x i8]* %self.0 to i8*
  ret i8* %0
}

; core::slice::raw::from_raw_parts_mut
; Function Attrs: inlinehint nonlazybind uwtable
define internal { [0 x i8]*, i64 } @_ZN4core5slice3raw18from_raw_parts_mut17hb30404c501e32fe4E(i8* %data, i64 %len) unnamed_addr #0 {
start:
; call core::slice::raw::debug_check_data_len
  call void @_ZN4core5slice3raw20debug_check_data_len17hcbd780707239090aE(i8* %data, i64 %len)
  br label %bb1

bb1:                                              ; preds = %start
; call core::ptr::slice_from_raw_parts_mut
  %0 = call { [0 x i8]*, i64 } @_ZN4core3ptr24slice_from_raw_parts_mut17hbf4b87a8a9a7985cE(i8* %data, i64 %len)
  %_11.0 = extractvalue { [0 x i8]*, i64 } %0, 0
  %_11.1 = extractvalue { [0 x i8]*, i64 } %0, 1
  br label %bb2

bb2:                                              ; preds = %bb1
  %1 = insertvalue { [0 x i8]*, i64 } undef, [0 x i8]* %_11.0, 0
  %2 = insertvalue { [0 x i8]*, i64 } %1, i64 %_11.1, 1
  ret { [0 x i8]*, i64 } %2
}

; core::slice::raw::debug_check_data_len
; Function Attrs: nonlazybind uwtable
define internal void @_ZN4core5slice3raw20debug_check_data_len17hcbd780707239090aE(i8* %_data, i64 %_len) unnamed_addr #2 {
start:
  ret void
}

; core::option::Option<T>::ok_or
; Function Attrs: inlinehint nonlazybind uwtable
define internal { i64, i64 } @"_ZN4core6option15Option$LT$T$GT$5ok_or17h2b00058b4213febcE"(i64 %0, i64 %1) unnamed_addr #0 {
start:
  %_7 = alloca i8, align 1
  %2 = alloca { i64, i64 }, align 8
  %self = alloca { i64, i64 }, align 8
  %3 = getelementptr inbounds { i64, i64 }, { i64, i64 }* %self, i32 0, i32 0
  store i64 %0, i64* %3, align 8
  %4 = getelementptr inbounds { i64, i64 }, { i64, i64 }* %self, i32 0, i32 1
  store i64 %1, i64* %4, align 8
  store i8 0, i8* %_7, align 1
  store i8 1, i8* %_7, align 1
  %5 = bitcast { i64, i64 }* %self to i64*
  %_3 = load i64, i64* %5, align 8, !range !5, !noundef !3
  switch i64 %_3, label %bb2 [
    i64 0, label %bb1
    i64 1, label %bb3
  ]

bb2:                                              ; preds = %start
  unreachable

bb1:                                              ; preds = %start
  store i8 0, i8* %_7, align 1
  %6 = bitcast { i64, i64 }* %2 to %"core::result::Result<usize, core::alloc::layout::LayoutError>::Err"*
  %7 = getelementptr inbounds %"core::result::Result<usize, core::alloc::layout::LayoutError>::Err", %"core::result::Result<usize, core::alloc::layout::LayoutError>::Err"* %6, i32 0, i32 1
  %8 = bitcast { i64, i64 }* %2 to i64*
  store i64 1, i64* %8, align 8
  br label %bb6

bb3:                                              ; preds = %start
  %9 = bitcast { i64, i64 }* %self to %"core::option::Option<usize>::Some"*
  %10 = getelementptr inbounds %"core::option::Option<usize>::Some", %"core::option::Option<usize>::Some"* %9, i32 0, i32 1
  %v = load i64, i64* %10, align 8
  %11 = bitcast { i64, i64 }* %2 to %"core::result::Result<usize, core::alloc::layout::LayoutError>::Ok"*
  %12 = getelementptr inbounds %"core::result::Result<usize, core::alloc::layout::LayoutError>::Ok", %"core::result::Result<usize, core::alloc::layout::LayoutError>::Ok"* %11, i32 0, i32 1
  store i64 %v, i64* %12, align 8
  %13 = bitcast { i64, i64 }* %2 to i64*
  store i64 0, i64* %13, align 8
  br label %bb6

bb6:                                              ; preds = %bb1, %bb3
  %14 = load i8, i8* %_7, align 1, !range !4, !noundef !3
  %15 = trunc i8 %14 to i1
  br i1 %15, label %bb5, label %bb4

bb4:                                              ; preds = %bb5, %bb6
  %16 = getelementptr inbounds { i64, i64 }, { i64, i64 }* %2, i32 0, i32 0
  %17 = load i64, i64* %16, align 8, !range !5, !noundef !3
  %18 = getelementptr inbounds { i64, i64 }, { i64, i64 }* %2, i32 0, i32 1
  %19 = load i64, i64* %18, align 8
  %20 = insertvalue { i64, i64 } undef, i64 %17, 0
  %21 = insertvalue { i64, i64 } %20, i64 %19, 1
  ret { i64, i64 } %21

bb5:                                              ; preds = %bb6
  br label %bb4
}

; core::option::Option<T>::ok_or
; Function Attrs: inlinehint nonlazybind uwtable
define internal i8* @"_ZN4core6option15Option$LT$T$GT$5ok_or17h4488b1962bc9b7e7E"(i8* %0) unnamed_addr #0 {
start:
  %_7 = alloca i8, align 1
  %1 = alloca i8*, align 8
  %self = alloca i8*, align 8
  store i8* %0, i8** %self, align 8
  store i8 0, i8* %_7, align 1
  store i8 1, i8* %_7, align 1
  %2 = bitcast i8** %self to {}**
  %3 = load {}*, {}** %2, align 8
  %4 = icmp eq {}* %3, null
  %_3 = select i1 %4, i64 0, i64 1
  switch i64 %_3, label %bb2 [
    i64 0, label %bb1
    i64 1, label %bb3
  ]

bb2:                                              ; preds = %start
  unreachable

bb1:                                              ; preds = %start
  store i8 0, i8* %_7, align 1
  %5 = bitcast i8** %1 to %"core::result::Result<core::ptr::non_null::NonNull<u8>, core::alloc::AllocError>::Err"*
  %6 = bitcast %"core::result::Result<core::ptr::non_null::NonNull<u8>, core::alloc::AllocError>::Err"* %5 to %"core::alloc::AllocError"*
  %7 = bitcast i8** %1 to {}**
  store {}* null, {}** %7, align 8
  br label %bb6

bb3:                                              ; preds = %start
  %v = load i8*, i8** %self, align 8, !nonnull !3, !noundef !3
  store i8* %v, i8** %1, align 8
  br label %bb6

bb6:                                              ; preds = %bb1, %bb3
  %8 = load i8, i8* %_7, align 1, !range !4, !noundef !3
  %9 = trunc i8 %8 to i1
  br i1 %9, label %bb5, label %bb4

bb4:                                              ; preds = %bb5, %bb6
  %10 = load i8*, i8** %1, align 8
  ret i8* %10

bb5:                                              ; preds = %bb6
  br label %bb4
}

; core::result::Result<T,E>::unwrap_unchecked
; Function Attrs: inlinehint nonlazybind uwtable
define internal { i64, i64 } @"_ZN4core6result19Result$LT$T$C$E$GT$16unwrap_unchecked17he98a1549d1bda0ddE"(i64 %0, i64 %1, %"core::panic::location::Location"* align 8 %2) unnamed_addr #0 personality i32 (i32, i32, i64, %"unwind::libunwind::_Unwind_Exception"*, %"unwind::libunwind::_Unwind_Context"*)* @rust_eh_personality {
start:
  %3 = alloca { i8*, i32 }, align 8
  %_4 = alloca i8, align 1
  %self = alloca { i64, i64 }, align 8
  %4 = getelementptr inbounds { i64, i64 }, { i64, i64 }* %self, i32 0, i32 0
  store i64 %0, i64* %4, align 8
  %5 = getelementptr inbounds { i64, i64 }, { i64, i64 }* %self, i32 0, i32 1
  store i64 %1, i64* %5, align 8
  store i8 0, i8* %_4, align 1
  store i8 1, i8* %_4, align 1
  %6 = getelementptr inbounds { i64, i64 }, { i64, i64 }* %self, i32 0, i32 1
  %7 = load i64, i64* %6, align 8
  %8 = icmp eq i64 %7, 0
  %_2 = select i1 %8, i64 1, i64 0
  switch i64 %_2, label %bb2 [
    i64 0, label %bb3
    i64 1, label %bb1
  ]

bb2:                                              ; preds = %start
  unreachable

bb3:                                              ; preds = %start
  store i8 0, i8* %_4, align 1
  %9 = getelementptr inbounds { i64, i64 }, { i64, i64 }* %self, i32 0, i32 0
  %t.0 = load i64, i64* %9, align 8
  %10 = getelementptr inbounds { i64, i64 }, { i64, i64 }* %self, i32 0, i32 1
  %t.1 = load i64, i64* %10, align 8, !range !6, !noundef !3
  %11 = getelementptr inbounds { i64, i64 }, { i64, i64 }* %self, i32 0, i32 1
  %12 = load i64, i64* %11, align 8
  %13 = icmp eq i64 %12, 0
  %_5 = select i1 %13, i64 1, i64 0
  %14 = icmp eq i64 %_5, 0
  br i1 %14, label %bb5, label %bb6

bb1:                                              ; preds = %start
; invoke core::hint::unreachable_unchecked
  invoke void @_ZN4core4hint21unreachable_unchecked17h8be5f49168d2c017E() #16
          to label %unreachable unwind label %cleanup

bb10:                                             ; preds = %cleanup
  %15 = getelementptr inbounds { i64, i64 }, { i64, i64 }* %self, i32 0, i32 1
  %16 = load i64, i64* %15, align 8
  %17 = icmp eq i64 %16, 0
  %_6 = select i1 %17, i64 1, i64 0
  %18 = icmp eq i64 %_6, 0
  br i1 %18, label %bb7, label %bb9

cleanup:                                          ; preds = %bb1
  %19 = landingpad { i8*, i32 }
          cleanup
  %20 = extractvalue { i8*, i32 } %19, 0
  %21 = extractvalue { i8*, i32 } %19, 1
  %22 = getelementptr inbounds { i8*, i32 }, { i8*, i32 }* %3, i32 0, i32 0
  store i8* %20, i8** %22, align 8
  %23 = getelementptr inbounds { i8*, i32 }, { i8*, i32 }* %3, i32 0, i32 1
  store i32 %21, i32* %23, align 8
  br label %bb10

unreachable:                                      ; preds = %bb1
  unreachable

bb7:                                              ; preds = %bb10
  %24 = load i8, i8* %_4, align 1, !range !4, !noundef !3
  %25 = trunc i8 %24 to i1
  br i1 %25, label %bb8, label %bb4

bb9:                                              ; preds = %bb10
  br label %bb4

bb4:                                              ; preds = %bb8, %bb7, %bb9
  %26 = bitcast { i8*, i32 }* %3 to i8**
  %27 = load i8*, i8** %26, align 8
  %28 = getelementptr inbounds { i8*, i32 }, { i8*, i32 }* %3, i32 0, i32 1
  %29 = load i32, i32* %28, align 8
  %30 = insertvalue { i8*, i32 } undef, i8* %27, 0
  %31 = insertvalue { i8*, i32 } %30, i32 %29, 1
  resume { i8*, i32 } %31

bb8:                                              ; preds = %bb7
  br label %bb4

bb5:                                              ; preds = %bb6, %bb3
  %32 = insertvalue { i64, i64 } undef, i64 %t.0, 0
  %33 = insertvalue { i64, i64 } %32, i64 %t.1, 1
  ret { i64, i64 } %33

bb6:                                              ; preds = %bb3
  br label %bb5
}

; <T as core::convert::From<T>>::from
; Function Attrs: nonlazybind uwtable
define internal void @"_ZN50_$LT$T$u20$as$u20$core..convert..From$LT$T$GT$$GT$4from17h607faa3f6994df59E"() unnamed_addr #2 {
start:
  ret void
}

; <T as core::convert::From<T>>::from
; Function Attrs: nonlazybind uwtable
define internal void @"_ZN50_$LT$T$u20$as$u20$core..convert..From$LT$T$GT$$GT$4from17h98675ed07fd30887E"() unnamed_addr #2 {
start:
  ret void
}

; <T as core::convert::Into<U>>::into
; Function Attrs: nonlazybind uwtable
define internal { i64, i64 } @"_ZN50_$LT$T$u20$as$u20$core..convert..Into$LT$U$GT$$GT$4into17h0c69129b3f7b31c9E"(i64 %self.0, i64 %self.1) unnamed_addr #2 {
start:
; call <alloc::collections::TryReserveError as core::convert::From<alloc::collections::TryReserveErrorKind>>::from
  %0 = call { i64, i64 } @"_ZN122_$LT$alloc..collections..TryReserveError$u20$as$u20$core..convert..From$LT$alloc..collections..TryReserveErrorKind$GT$$GT$4from17h5a9c0878376555d3E"(i64 %self.0, i64 %self.1)
  %1 = extractvalue { i64, i64 } %0, 0
  %2 = extractvalue { i64, i64 } %0, 1
  br label %bb1

bb1:                                              ; preds = %start
  %3 = insertvalue { i64, i64 } undef, i64 %1, 0
  %4 = insertvalue { i64, i64 } %3, i64 %2, 1
  ret { i64, i64 } %4
}

; <T as core::convert::Into<U>>::into
; Function Attrs: nonlazybind uwtable
define internal i8* @"_ZN50_$LT$T$u20$as$u20$core..convert..Into$LT$U$GT$$GT$4into17ha87890d456e31066E"(i8* %self) unnamed_addr #2 {
start:
; call <core::ptr::non_null::NonNull<T> as core::convert::From<core::ptr::unique::Unique<T>>>::from
  %0 = call i8* @"_ZN119_$LT$core..ptr..non_null..NonNull$LT$T$GT$$u20$as$u20$core..convert..From$LT$core..ptr..unique..Unique$LT$T$GT$$GT$$GT$4from17h9ac4922a9b919b97E"(i8* %self)
  br label %bb1

bb1:                                              ; preds = %start
  ret i8* %0
}

; <T as alloc::slice::hack::ConvertVec>::to_vec
; Function Attrs: inlinehint nonlazybind uwtable
define internal void @"_ZN52_$LT$T$u20$as$u20$alloc..slice..hack..ConvertVec$GT$6to_vec17h78e239c1c01a1f82E"(%"alloc::vec::Vec<u8>"* sret(%"alloc::vec::Vec<u8>") %v, [0 x i8]* align 1 %s.0, i64 %s.1) unnamed_addr #0 personality i32 (i32, i32, i64, %"unwind::libunwind::_Unwind_Exception"*, %"unwind::libunwind::_Unwind_Context"*)* @rust_eh_personality {
start:
  %0 = alloca { i8*, i32 }, align 8
  %_17 = alloca i8, align 1
  store i8 0, i8* %_17, align 1
  store i8 1, i8* %_17, align 1
; invoke core::slice::<impl [T]>::len
  %_3 = invoke i64 @"_ZN4core5slice29_$LT$impl$u20$$u5b$T$u5d$$GT$3len17h75e6447c522d4d70E"([0 x i8]* align 1 %s.0, i64 %s.1)
          to label %bb1 unwind label %cleanup

bb12:                                             ; preds = %bb9, %cleanup
  %1 = load i8, i8* %_17, align 1, !range !4, !noundef !3
  %2 = trunc i8 %1 to i1
  br i1 %2, label %bb11, label %bb10

cleanup:                                          ; preds = %bb1, %start
  %3 = landingpad { i8*, i32 }
          cleanup
  %4 = extractvalue { i8*, i32 } %3, 0
  %5 = extractvalue { i8*, i32 } %3, 1
  %6 = getelementptr inbounds { i8*, i32 }, { i8*, i32 }* %0, i32 0, i32 0
  store i8* %4, i8** %6, align 8
  %7 = getelementptr inbounds { i8*, i32 }, { i8*, i32 }* %0, i32 0, i32 1
  store i32 %5, i32* %7, align 8
  br label %bb12

bb1:                                              ; preds = %start
  store i8 0, i8* %_17, align 1
; invoke alloc::vec::Vec<T,A>::with_capacity_in
  invoke void @"_ZN5alloc3vec16Vec$LT$T$C$A$GT$16with_capacity_in17h1583f499c27d6a7eE"(%"alloc::vec::Vec<u8>"* sret(%"alloc::vec::Vec<u8>") %v, i64 %_3)
          to label %bb2 unwind label %cleanup

bb2:                                              ; preds = %bb1
; invoke core::slice::<impl [T]>::as_ptr
  %_7 = invoke i8* @"_ZN4core5slice29_$LT$impl$u20$$u5b$T$u5d$$GT$6as_ptr17hff1348a70deb00e1E"([0 x i8]* align 1 %s.0, i64 %s.1)
          to label %bb3 unwind label %cleanup1

bb9:                                              ; preds = %cleanup1
; invoke core::ptr::drop_in_place<alloc::vec::Vec<u8>>
  invoke void @"_ZN4core3ptr46drop_in_place$LT$alloc..vec..Vec$LT$u8$GT$$GT$17h46dc0d96448876f6E"(%"alloc::vec::Vec<u8>"* %v) #14
          to label %bb12 unwind label %abort

cleanup1:                                         ; preds = %bb7, %bb6, %bb5, %bb4, %bb3, %bb2
  %8 = landingpad { i8*, i32 }
          cleanup
  %9 = extractvalue { i8*, i32 } %8, 0
  %10 = extractvalue { i8*, i32 } %8, 1
  %11 = getelementptr inbounds { i8*, i32 }, { i8*, i32 }* %0, i32 0, i32 0
  store i8* %9, i8** %11, align 8
  %12 = getelementptr inbounds { i8*, i32 }, { i8*, i32 }* %0, i32 0, i32 1
  store i32 %10, i32* %12, align 8
  br label %bb9

bb3:                                              ; preds = %bb2
; invoke alloc::vec::Vec<T,A>::as_mut_ptr
  %_9 = invoke i8* @"_ZN5alloc3vec16Vec$LT$T$C$A$GT$10as_mut_ptr17h51990565255f5167E"(%"alloc::vec::Vec<u8>"* align 8 %v)
          to label %bb4 unwind label %cleanup1

bb4:                                              ; preds = %bb3
; invoke core::slice::<impl [T]>::len
  %_11 = invoke i64 @"_ZN4core5slice29_$LT$impl$u20$$u5b$T$u5d$$GT$3len17h75e6447c522d4d70E"([0 x i8]* align 1 %s.0, i64 %s.1)
          to label %bb5 unwind label %cleanup1

bb5:                                              ; preds = %bb4
; invoke core::ptr::const_ptr::<impl *const T>::copy_to_nonoverlapping
  invoke void @"_ZN4core3ptr9const_ptr33_$LT$impl$u20$$BP$const$u20$T$GT$22copy_to_nonoverlapping17h568bb051dd000945E"(i8* %_7, i8* %_9, i64 %_11)
          to label %bb6 unwind label %cleanup1

bb6:                                              ; preds = %bb5
; invoke core::slice::<impl [T]>::len
  %_15 = invoke i64 @"_ZN4core5slice29_$LT$impl$u20$$u5b$T$u5d$$GT$3len17h75e6447c522d4d70E"([0 x i8]* align 1 %s.0, i64 %s.1)
          to label %bb7 unwind label %cleanup1

bb7:                                              ; preds = %bb6
; invoke alloc::vec::Vec<T,A>::set_len
  invoke void @"_ZN5alloc3vec16Vec$LT$T$C$A$GT$7set_len17hd8023a5946048425E"(%"alloc::vec::Vec<u8>"* align 8 %v, i64 %_15)
          to label %bb8 unwind label %cleanup1

bb8:                                              ; preds = %bb7
  ret void

abort:                                            ; preds = %bb9
  %13 = landingpad { i8*, i32 }
          cleanup
; call core::panicking::panic_no_unwind
  call void @_ZN4core9panicking15panic_no_unwind17h133ff180a0ae6324E() #15
  unreachable

bb10:                                             ; preds = %bb11, %bb12
  %14 = bitcast { i8*, i32 }* %0 to i8**
  %15 = load i8*, i8** %14, align 8
  %16 = getelementptr inbounds { i8*, i32 }, { i8*, i32 }* %0, i32 0, i32 1
  %17 = load i32, i32* %16, align 8
  %18 = insertvalue { i8*, i32 } undef, i8* %15, 0
  %19 = insertvalue { i8*, i32 } %18, i32 %17, 1
  resume { i8*, i32 } %19

bb11:                                             ; preds = %bb12
  br label %bb10
}

; <() as std::process::Termination>::report
; Function Attrs: inlinehint nonlazybind uwtable
define internal i8 @"_ZN54_$LT$$LP$$RP$$u20$as$u20$std..process..Termination$GT$6report17h9724af5ce9cd6f80E"() unnamed_addr #0 {
start:
; call <std::process::ExitCode as std::process::Termination>::report
  %0 = call i8 @"_ZN68_$LT$std..process..ExitCode$u20$as$u20$std..process..Termination$GT$6report17h46ea44827fe76bf0E"(i8 0)
  br label %bb1

bb1:                                              ; preds = %start
  ret i8 %0
}

; alloc::str::<impl alloc::borrow::ToOwned for str>::to_owned
; Function Attrs: inlinehint nonlazybind uwtable
define internal void @"_ZN5alloc3str56_$LT$impl$u20$alloc..borrow..ToOwned$u20$for$u20$str$GT$8to_owned17h678ceee8dfa3b33dE"(%"alloc::string::String"* sret(%"alloc::string::String") %0, [0 x i8]* align 1 %self.0, i64 %self.1) unnamed_addr #0 {
start:
  %1 = alloca { [0 x i8]*, i64 }, align 8
  %_2 = alloca %"alloc::vec::Vec<u8>", align 8
  %2 = getelementptr inbounds { [0 x i8]*, i64 }, { [0 x i8]*, i64 }* %1, i32 0, i32 0
  store [0 x i8]* %self.0, [0 x i8]** %2, align 8
  %3 = getelementptr inbounds { [0 x i8]*, i64 }, { [0 x i8]*, i64 }* %1, i32 0, i32 1
  store i64 %self.1, i64* %3, align 8
  %4 = getelementptr inbounds { [0 x i8]*, i64 }, { [0 x i8]*, i64 }* %1, i32 0, i32 0
  %5 = load [0 x i8]*, [0 x i8]** %4, align 8, !nonnull !3, !align !8, !noundef !3
  %6 = getelementptr inbounds { [0 x i8]*, i64 }, { [0 x i8]*, i64 }* %1, i32 0, i32 1
  %7 = load i64, i64* %6, align 8
  %8 = insertvalue { [0 x i8]*, i64 } undef, [0 x i8]* %5, 0
  %9 = insertvalue { [0 x i8]*, i64 } %8, i64 %7, 1
  %_4.0 = extractvalue { [0 x i8]*, i64 } %9, 0
  %_4.1 = extractvalue { [0 x i8]*, i64 } %9, 1
  br label %bb1

bb1:                                              ; preds = %start
; call alloc::slice::<impl alloc::borrow::ToOwned for [T]>::to_owned
  call void @"_ZN5alloc5slice64_$LT$impl$u20$alloc..borrow..ToOwned$u20$for$u20$$u5b$T$u5d$$GT$8to_owned17h2525f1a53f1679a7E"(%"alloc::vec::Vec<u8>"* sret(%"alloc::vec::Vec<u8>") %_2, [0 x i8]* align 1 %_4.0, i64 %_4.1)
  br label %bb2

bb2:                                              ; preds = %bb1
; call alloc::string::String::from_utf8_unchecked
  call void @_ZN5alloc6string6String19from_utf8_unchecked17h7638e39c1ffce4ceE(%"alloc::string::String"* sret(%"alloc::string::String") %0, %"alloc::vec::Vec<u8>"* %_2)
  br label %bb3

bb3:                                              ; preds = %bb2
  ret void
}

; alloc::vec::Vec<T,A>::as_mut_ptr
; Function Attrs: inlinehint nonlazybind uwtable
define internal i8* @"_ZN5alloc3vec16Vec$LT$T$C$A$GT$10as_mut_ptr17h51990565255f5167E"(%"alloc::vec::Vec<u8>"* align 8 %self) unnamed_addr #0 {
start:
  %_2 = bitcast %"alloc::vec::Vec<u8>"* %self to { i8*, i64 }*
; call alloc::raw_vec::RawVec<T,A>::ptr
  %ptr = call i8* @"_ZN5alloc7raw_vec19RawVec$LT$T$C$A$GT$3ptr17hfe04f37e754c2230E"({ i8*, i64 }* align 8 %_2)
  br label %bb1

bb1:                                              ; preds = %start
; call core::ptr::mut_ptr::<impl *mut T>::is_null
  %_5 = call zeroext i1 @"_ZN4core3ptr7mut_ptr31_$LT$impl$u20$$BP$mut$u20$T$GT$7is_null17h19256406ac0bfa9eE"(i8* %ptr)
  br label %bb2

bb2:                                              ; preds = %bb1
  %_4 = xor i1 %_5, true
  call void @llvm.assume(i1 %_4)
  br label %bb3

bb3:                                              ; preds = %bb2
  ret i8* %ptr
}

; alloc::vec::Vec<T,A>::with_capacity_in
; Function Attrs: inlinehint nonlazybind uwtable
define internal void @"_ZN5alloc3vec16Vec$LT$T$C$A$GT$16with_capacity_in17h1583f499c27d6a7eE"(%"alloc::vec::Vec<u8>"* sret(%"alloc::vec::Vec<u8>") %0, i64 %capacity) unnamed_addr #0 {
start:
; call alloc::raw_vec::RawVec<T,A>::with_capacity_in
  %1 = call { i8*, i64 } @"_ZN5alloc7raw_vec19RawVec$LT$T$C$A$GT$16with_capacity_in17ha0ab696d1676c46eE"(i64 %capacity)
  %_3.0 = extractvalue { i8*, i64 } %1, 0
  %_3.1 = extractvalue { i8*, i64 } %1, 1
  br label %bb1

bb1:                                              ; preds = %start
  %2 = bitcast %"alloc::vec::Vec<u8>"* %0 to { i8*, i64 }*
  %3 = getelementptr inbounds { i8*, i64 }, { i8*, i64 }* %2, i32 0, i32 0
  store i8* %_3.0, i8** %3, align 8
  %4 = getelementptr inbounds { i8*, i64 }, { i8*, i64 }* %2, i32 0, i32 1
  store i64 %_3.1, i64* %4, align 8
  %5 = getelementptr inbounds %"alloc::vec::Vec<u8>", %"alloc::vec::Vec<u8>"* %0, i32 0, i32 1
  store i64 0, i64* %5, align 8
  ret void
}

; alloc::vec::Vec<T,A>::set_len
; Function Attrs: inlinehint nonlazybind uwtable
define internal void @"_ZN5alloc3vec16Vec$LT$T$C$A$GT$7set_len17hd8023a5946048425E"(%"alloc::vec::Vec<u8>"* align 8 %self, i64 %new_len) unnamed_addr #0 {
start:
  %0 = getelementptr inbounds %"alloc::vec::Vec<u8>", %"alloc::vec::Vec<u8>"* %self, i32 0, i32 1
  store i64 %new_len, i64* %0, align 8
  ret void
}

; alloc::alloc::alloc_zeroed
; Function Attrs: inlinehint nonlazybind uwtable
define internal i8* @_ZN5alloc5alloc12alloc_zeroed17h69a3554fbcdcb790E(i64 %0, i64 %1) unnamed_addr #0 {
start:
  %layout = alloca { i64, i64 }, align 8
  %2 = getelementptr inbounds { i64, i64 }, { i64, i64 }* %layout, i32 0, i32 0
  store i64 %0, i64* %2, align 8
  %3 = getelementptr inbounds { i64, i64 }, { i64, i64 }* %layout, i32 0, i32 1
  store i64 %1, i64* %3, align 8
; call core::alloc::layout::Layout::size
  %_2 = call i64 @_ZN4core5alloc6layout6Layout4size17h5764bde82d290296E({ i64, i64 }* align 8 %layout)
  br label %bb1

bb1:                                              ; preds = %start
; call core::alloc::layout::Layout::align
  %_4 = call i64 @_ZN4core5alloc6layout6Layout5align17h4d17d7ce729107b6E({ i64, i64 }* align 8 %layout)
  br label %bb2

bb2:                                              ; preds = %bb1
  %4 = call i8* @__rust_alloc_zeroed(i64 %_2, i64 %_4) #17
  br label %bb3

bb3:                                              ; preds = %bb2
  ret i8* %4
}

; alloc::alloc::alloc
; Function Attrs: inlinehint nonlazybind uwtable
define internal i8* @_ZN5alloc5alloc5alloc17hcf964583985b02aaE(i64 %0, i64 %1) unnamed_addr #0 {
start:
  %layout = alloca { i64, i64 }, align 8
  %2 = getelementptr inbounds { i64, i64 }, { i64, i64 }* %layout, i32 0, i32 0
  store i64 %0, i64* %2, align 8
  %3 = getelementptr inbounds { i64, i64 }, { i64, i64 }* %layout, i32 0, i32 1
  store i64 %1, i64* %3, align 8
; call core::alloc::layout::Layout::size
  %_2 = call i64 @_ZN4core5alloc6layout6Layout4size17h5764bde82d290296E({ i64, i64 }* align 8 %layout)
  br label %bb1

bb1:                                              ; preds = %start
; call core::alloc::layout::Layout::align
  %_4 = call i64 @_ZN4core5alloc6layout6Layout5align17h4d17d7ce729107b6E({ i64, i64 }* align 8 %layout)
  br label %bb2

bb2:                                              ; preds = %bb1
  %4 = call i8* @__rust_alloc(i64 %_2, i64 %_4) #17
  br label %bb3

bb3:                                              ; preds = %bb2
  ret i8* %4
}

; alloc::alloc::Global::alloc_impl
; Function Attrs: inlinehint nonlazybind uwtable
define internal { i8*, i64 } @_ZN5alloc5alloc6Global10alloc_impl17h191df09cde4eb35cE(%"alloc::alloc::Global"* align 1 %self, i64 %0, i64 %1, i1 zeroext %zeroed) unnamed_addr #0 {
start:
  %_15 = alloca i8*, align 8
  %raw_ptr = alloca i8*, align 8
  %2 = alloca { i8*, i64 }, align 8
  %layout = alloca { i64, i64 }, align 8
  %3 = getelementptr inbounds { i64, i64 }, { i64, i64 }* %layout, i32 0, i32 0
  store i64 %0, i64* %3, align 8
  %4 = getelementptr inbounds { i64, i64 }, { i64, i64 }* %layout, i32 0, i32 1
  store i64 %1, i64* %4, align 8
; call core::alloc::layout::Layout::size
  %_4 = call i64 @_ZN4core5alloc6layout6Layout4size17h5764bde82d290296E({ i64, i64 }* align 8 %layout)
  br label %bb1

bb1:                                              ; preds = %start
  %5 = icmp eq i64 %_4, 0
  br i1 %5, label %bb3, label %bb2

bb3:                                              ; preds = %bb1
; call core::alloc::layout::Layout::dangling
  %_7 = call i8* @_ZN4core5alloc6layout6Layout8dangling17h86ba1e30a489230bE({ i64, i64 }* align 8 %layout)
  br label %bb4

bb2:                                              ; preds = %bb1
  br i1 %zeroed, label %bb6, label %bb8

bb8:                                              ; preds = %bb2
  %6 = getelementptr inbounds { i64, i64 }, { i64, i64 }* %layout, i32 0, i32 0
  %_13.0 = load i64, i64* %6, align 8
  %7 = getelementptr inbounds { i64, i64 }, { i64, i64 }* %layout, i32 0, i32 1
  %_13.1 = load i64, i64* %7, align 8, !range !6, !noundef !3
; call alloc::alloc::alloc
  %8 = call i8* @_ZN5alloc5alloc5alloc17hcf964583985b02aaE(i64 %_13.0, i64 %_13.1)
  store i8* %8, i8** %raw_ptr, align 8
  br label %bb9

bb6:                                              ; preds = %bb2
  %9 = getelementptr inbounds { i64, i64 }, { i64, i64 }* %layout, i32 0, i32 0
  %_12.0 = load i64, i64* %9, align 8
  %10 = getelementptr inbounds { i64, i64 }, { i64, i64 }* %layout, i32 0, i32 1
  %_12.1 = load i64, i64* %10, align 8, !range !6, !noundef !3
; call alloc::alloc::alloc_zeroed
  %11 = call i8* @_ZN5alloc5alloc12alloc_zeroed17h69a3554fbcdcb790E(i64 %_12.0, i64 %_12.1)
  store i8* %11, i8** %raw_ptr, align 8
  br label %bb7

bb7:                                              ; preds = %bb6
  br label %bb10

bb10:                                             ; preds = %bb9, %bb7
  %_18 = load i8*, i8** %raw_ptr, align 8
; call core::ptr::non_null::NonNull<T>::new
  %_17 = call i8* @"_ZN4core3ptr8non_null16NonNull$LT$T$GT$3new17hdb16336008d24da0E"(i8* %_18)
  br label %bb11

bb9:                                              ; preds = %bb8
  br label %bb10

bb11:                                             ; preds = %bb10
; call core::option::Option<T>::ok_or
  %_16 = call i8* @"_ZN4core6option15Option$LT$T$GT$5ok_or17h4488b1962bc9b7e7E"(i8* %_17)
  br label %bb12

bb12:                                             ; preds = %bb11
; call <core::result::Result<T,E> as core::ops::try_trait::Try>::branch
  %12 = call i8* @"_ZN79_$LT$core..result..Result$LT$T$C$E$GT$$u20$as$u20$core..ops..try_trait..Try$GT$6branch17h1326bcfbb9bff632E"(i8* %_16)
  store i8* %12, i8** %_15, align 8
  br label %bb13

bb13:                                             ; preds = %bb12
  %13 = bitcast i8** %_15 to {}**
  %14 = load {}*, {}** %13, align 8
  %15 = icmp eq {}* %14, null
  %_20 = select i1 %15, i64 1, i64 0
  switch i64 %_20, label %bb15 [
    i64 0, label %bb14
    i64 1, label %bb16
  ]

bb15:                                             ; preds = %bb13
  unreachable

bb14:                                             ; preds = %bb13
  %val = load i8*, i8** %_15, align 8, !nonnull !3, !noundef !3
; call core::ptr::non_null::NonNull<[T]>::slice_from_raw_parts
  %16 = call { i8*, i64 } @"_ZN4core3ptr8non_null26NonNull$LT$$u5b$T$u5d$$GT$20slice_from_raw_parts17h5859386bc9ba83c2E"(i8* %val, i64 %_4)
  %_24.0 = extractvalue { i8*, i64 } %16, 0
  %_24.1 = extractvalue { i8*, i64 } %16, 1
  br label %bb18

bb16:                                             ; preds = %bb13
; call <core::result::Result<T,F> as core::ops::try_trait::FromResidual<core::result::Result<core::convert::Infallible,E>>>::from_residual
  %17 = call { i8*, i64 } @"_ZN153_$LT$core..result..Result$LT$T$C$F$GT$$u20$as$u20$core..ops..try_trait..FromResidual$LT$core..result..Result$LT$core..convert..Infallible$C$E$GT$$GT$$GT$13from_residual17h7a6211e00e8dae0dE"(%"core::panic::location::Location"* align 8 bitcast (<{ i8*, [16 x i8] }>* @alloc39 to %"core::panic::location::Location"*))
  store { i8*, i64 } %17, { i8*, i64 }* %2, align 8
  br label %bb17

bb17:                                             ; preds = %bb16
  br label %bb20

bb20:                                             ; preds = %bb19, %bb17
  %18 = getelementptr inbounds { i8*, i64 }, { i8*, i64 }* %2, i32 0, i32 0
  %19 = load i8*, i8** %18, align 8
  %20 = getelementptr inbounds { i8*, i64 }, { i8*, i64 }* %2, i32 0, i32 1
  %21 = load i64, i64* %20, align 8
  %22 = insertvalue { i8*, i64 } undef, i8* %19, 0
  %23 = insertvalue { i8*, i64 } %22, i64 %21, 1
  ret { i8*, i64 } %23

bb18:                                             ; preds = %bb14
  %24 = getelementptr inbounds { i8*, i64 }, { i8*, i64 }* %2, i32 0, i32 0
  store i8* %_24.0, i8** %24, align 8
  %25 = getelementptr inbounds { i8*, i64 }, { i8*, i64 }* %2, i32 0, i32 1
  store i64 %_24.1, i64* %25, align 8
  br label %bb19

bb19:                                             ; preds = %bb5, %bb18
  br label %bb20

bb4:                                              ; preds = %bb3
; call core::ptr::non_null::NonNull<[T]>::slice_from_raw_parts
  %26 = call { i8*, i64 } @"_ZN4core3ptr8non_null26NonNull$LT$$u5b$T$u5d$$GT$20slice_from_raw_parts17h5859386bc9ba83c2E"(i8* %_7, i64 0)
  %_6.0 = extractvalue { i8*, i64 } %26, 0
  %_6.1 = extractvalue { i8*, i64 } %26, 1
  br label %bb5

bb5:                                              ; preds = %bb4
  %27 = getelementptr inbounds { i8*, i64 }, { i8*, i64 }* %2, i32 0, i32 0
  store i8* %_6.0, i8** %27, align 8
  %28 = getelementptr inbounds { i8*, i64 }, { i8*, i64 }* %2, i32 0, i32 1
  store i64 %_6.1, i64* %28, align 8
  br label %bb19
}

; alloc::alloc::dealloc
; Function Attrs: inlinehint nonlazybind uwtable
define internal void @_ZN5alloc5alloc7dealloc17h04443f5d42530c71E(i8* %ptr, i64 %0, i64 %1) unnamed_addr #0 {
start:
  %layout = alloca { i64, i64 }, align 8
  %2 = getelementptr inbounds { i64, i64 }, { i64, i64 }* %layout, i32 0, i32 0
  store i64 %0, i64* %2, align 8
  %3 = getelementptr inbounds { i64, i64 }, { i64, i64 }* %layout, i32 0, i32 1
  store i64 %1, i64* %3, align 8
; call core::alloc::layout::Layout::size
  %_4 = call i64 @_ZN4core5alloc6layout6Layout4size17h5764bde82d290296E({ i64, i64 }* align 8 %layout)
  br label %bb1

bb1:                                              ; preds = %start
; call core::alloc::layout::Layout::align
  %_6 = call i64 @_ZN4core5alloc6layout6Layout5align17h4d17d7ce729107b6E({ i64, i64 }* align 8 %layout)
  br label %bb2

bb2:                                              ; preds = %bb1
  call void @__rust_dealloc(i8* %ptr, i64 %_4, i64 %_6) #17
  br label %bb3

bb3:                                              ; preds = %bb2
  ret void
}

; alloc::slice::<impl [T]>::to_vec
; Function Attrs: inlinehint nonlazybind uwtable
define internal void @"_ZN5alloc5slice29_$LT$impl$u20$$u5b$T$u5d$$GT$6to_vec17h3d183eb55bf361e5E"(%"alloc::vec::Vec<u8>"* sret(%"alloc::vec::Vec<u8>") %0, [0 x i8]* align 1 %self.0, i64 %self.1) unnamed_addr #0 {
start:
; call alloc::slice::<impl [T]>::to_vec_in
  call void @"_ZN5alloc5slice29_$LT$impl$u20$$u5b$T$u5d$$GT$9to_vec_in17h8e2d4e8d93944684E"(%"alloc::vec::Vec<u8>"* sret(%"alloc::vec::Vec<u8>") %0, [0 x i8]* align 1 %self.0, i64 %self.1)
  br label %bb1

bb1:                                              ; preds = %start
  ret void
}

; alloc::slice::<impl [T]>::to_vec_in
; Function Attrs: inlinehint nonlazybind uwtable
define internal void @"_ZN5alloc5slice29_$LT$impl$u20$$u5b$T$u5d$$GT$9to_vec_in17h8e2d4e8d93944684E"(%"alloc::vec::Vec<u8>"* sret(%"alloc::vec::Vec<u8>") %0, [0 x i8]* align 1 %self.0, i64 %self.1) unnamed_addr #0 {
start:
; call alloc::slice::hack::to_vec
  call void @_ZN5alloc5slice4hack6to_vec17h50cce38a4a69f4dfE(%"alloc::vec::Vec<u8>"* sret(%"alloc::vec::Vec<u8>") %0, [0 x i8]* align 1 %self.0, i64 %self.1)
  br label %bb1

bb1:                                              ; preds = %start
  ret void
}

; alloc::slice::hack::to_vec
; Function Attrs: inlinehint nonlazybind uwtable
define internal void @_ZN5alloc5slice4hack6to_vec17h50cce38a4a69f4dfE(%"alloc::vec::Vec<u8>"* sret(%"alloc::vec::Vec<u8>") %0, [0 x i8]* align 1 %s.0, i64 %s.1) unnamed_addr #0 {
start:
; call <T as alloc::slice::hack::ConvertVec>::to_vec
  call void @"_ZN52_$LT$T$u20$as$u20$alloc..slice..hack..ConvertVec$GT$6to_vec17h78e239c1c01a1f82E"(%"alloc::vec::Vec<u8>"* sret(%"alloc::vec::Vec<u8>") %0, [0 x i8]* align 1 %s.0, i64 %s.1)
  br label %bb1

bb1:                                              ; preds = %start
  ret void
}

; alloc::slice::<impl alloc::borrow::ToOwned for [T]>::to_owned
; Function Attrs: nonlazybind uwtable
define internal void @"_ZN5alloc5slice64_$LT$impl$u20$alloc..borrow..ToOwned$u20$for$u20$$u5b$T$u5d$$GT$8to_owned17h2525f1a53f1679a7E"(%"alloc::vec::Vec<u8>"* sret(%"alloc::vec::Vec<u8>") %0, [0 x i8]* align 1 %self.0, i64 %self.1) unnamed_addr #2 {
start:
; call alloc::slice::<impl [T]>::to_vec
  call void @"_ZN5alloc5slice29_$LT$impl$u20$$u5b$T$u5d$$GT$6to_vec17h3d183eb55bf361e5E"(%"alloc::vec::Vec<u8>"* sret(%"alloc::vec::Vec<u8>") %0, [0 x i8]* align 1 %self.0, i64 %self.1)
  br label %bb1

bb1:                                              ; preds = %start
  ret void
}

; alloc::string::String::from_utf8_unchecked
; Function Attrs: inlinehint nonlazybind uwtable
define internal void @_ZN5alloc6string6String19from_utf8_unchecked17h7638e39c1ffce4ceE(%"alloc::string::String"* sret(%"alloc::string::String") %0, %"alloc::vec::Vec<u8>"* %bytes) unnamed_addr #0 {
start:
  %_2 = alloca %"alloc::vec::Vec<u8>", align 8
  %1 = bitcast %"alloc::vec::Vec<u8>"* %_2 to i8*
  %2 = bitcast %"alloc::vec::Vec<u8>"* %bytes to i8*
  call void @llvm.memcpy.p0i8.p0i8.i64(i8* align 8 %1, i8* align 8 %2, i64 24, i1 false)
  %3 = bitcast %"alloc::string::String"* %0 to %"alloc::vec::Vec<u8>"*
  %4 = bitcast %"alloc::vec::Vec<u8>"* %3 to i8*
  %5 = bitcast %"alloc::vec::Vec<u8>"* %_2 to i8*
  call void @llvm.memcpy.p0i8.p0i8.i64(i8* align 8 %4, i8* align 8 %5, i64 24, i1 false)
  ret void
}

; alloc::raw_vec::alloc_guard
; Function Attrs: inlinehint nonlazybind uwtable
define internal void @_ZN5alloc7raw_vec11alloc_guard17h358c45208dc4e8f1E(%"core::result::Result<(), alloc::collections::TryReserveError>"* sret(%"core::result::Result<(), alloc::collections::TryReserveError>") %0, i64 %alloc_size) unnamed_addr #0 {
start:
  %_4 = alloca { i64, i64 }, align 8
  br i1 false, label %bb1, label %bb3

bb3:                                              ; preds = %start
  %1 = bitcast %"core::result::Result<(), alloc::collections::TryReserveError>"* %0 to i64*
  store i64 0, i64* %1, align 8
  br label %bb4

bb1:                                              ; preds = %start
  %2 = getelementptr inbounds { i64, i64 }, { i64, i64 }* %_4, i32 0, i32 1
  store i64 0, i64* %2, align 8
  %3 = getelementptr inbounds { i64, i64 }, { i64, i64 }* %_4, i32 0, i32 0
  %4 = load i64, i64* %3, align 8
  %5 = getelementptr inbounds { i64, i64 }, { i64, i64 }* %_4, i32 0, i32 1
  %6 = load i64, i64* %5, align 8
; call <T as core::convert::Into<U>>::into
  %7 = call { i64, i64 } @"_ZN50_$LT$T$u20$as$u20$core..convert..Into$LT$U$GT$$GT$4into17h0c69129b3f7b31c9E"(i64 %4, i64 %6)
  %_3.0 = extractvalue { i64, i64 } %7, 0
  %_3.1 = extractvalue { i64, i64 } %7, 1
  br label %bb2

bb2:                                              ; preds = %bb1
  %8 = bitcast %"core::result::Result<(), alloc::collections::TryReserveError>"* %0 to %"core::result::Result<(), alloc::collections::TryReserveError>::Err"*
  %9 = getelementptr inbounds %"core::result::Result<(), alloc::collections::TryReserveError>::Err", %"core::result::Result<(), alloc::collections::TryReserveError>::Err"* %8, i32 0, i32 1
  %10 = getelementptr inbounds { i64, i64 }, { i64, i64 }* %9, i32 0, i32 0
  store i64 %_3.0, i64* %10, align 8
  %11 = getelementptr inbounds { i64, i64 }, { i64, i64 }* %9, i32 0, i32 1
  store i64 %_3.1, i64* %11, align 8
  %12 = bitcast %"core::result::Result<(), alloc::collections::TryReserveError>"* %0 to i64*
  store i64 1, i64* %12, align 8
  br label %bb4

bb4:                                              ; preds = %bb3, %bb2
  ret void
}

; alloc::raw_vec::RawVec<T,A>::allocate_in
; Function Attrs: nonlazybind uwtable
define internal { i8*, i64 } @"_ZN5alloc7raw_vec19RawVec$LT$T$C$A$GT$11allocate_in17ha98bd03bf48131e6E"(i64 %capacity, i1 zeroext %0) unnamed_addr #2 personality i32 (i32, i32, i64, %"unwind::libunwind::_Unwind_Exception"*, %"unwind::libunwind::_Unwind_Context"*)* @rust_eh_personality {
start:
  %1 = alloca { i8*, i32 }, align 8
  %_31 = alloca i8, align 1
  %result = alloca { i8*, i64 }, align 8
  %_11 = alloca %"core::result::Result<(), alloc::collections::TryReserveError>", align 8
  %_7 = alloca { i64, i64 }, align 8
  %layout = alloca { i64, i64 }, align 8
  %2 = alloca { i8*, i64 }, align 8
  %alloc = alloca %"alloc::alloc::Global", align 1
  %init = alloca i8, align 1
  %3 = zext i1 %0 to i8
  store i8 %3, i8* %init, align 1
  store i8 0, i8* %_31, align 1
  store i8 1, i8* %_31, align 1
  br label %bb1

bb29:                                             ; preds = %cleanup
  %4 = load i8, i8* %_31, align 1, !range !4, !noundef !3
  %5 = trunc i8 %4 to i1
  br i1 %5, label %bb28, label %bb27

cleanup:                                          ; preds = %bb2, %bb24, %bb23, %bb22, %bb20, %bb16, %bb14, %bb11, %bb9, %bb8, %bb6, %bb4
  %6 = landingpad { i8*, i32 }
          cleanup
  %7 = extractvalue { i8*, i32 } %6, 0
  %8 = extractvalue { i8*, i32 } %6, 1
  %9 = getelementptr inbounds { i8*, i32 }, { i8*, i32 }* %1, i32 0, i32 0
  store i8* %7, i8** %9, align 8
  %10 = getelementptr inbounds { i8*, i32 }, { i8*, i32 }* %1, i32 0, i32 1
  store i32 %8, i32* %10, align 8
  br label %bb29

bb1:                                              ; preds = %start
  %11 = icmp eq i64 1, 0
  br i1 %11, label %bb2, label %bb4

bb2:                                              ; preds = %bb1
  store i8 0, i8* %_31, align 1
; invoke alloc::raw_vec::RawVec<T,A>::new_in
  %12 = invoke { i8*, i64 } @"_ZN5alloc7raw_vec19RawVec$LT$T$C$A$GT$6new_in17h88079ced508c7c0cE"()
          to label %bb3 unwind label %cleanup

bb4:                                              ; preds = %bb1
; invoke core::alloc::layout::Layout::array
  %13 = invoke { i64, i64 } @_ZN4core5alloc6layout6Layout5array17h355012a979476f41E(i64 %capacity)
          to label %bb5 unwind label %cleanup

bb5:                                              ; preds = %bb4
  store { i64, i64 } %13, { i64, i64 }* %_7, align 8
  %14 = getelementptr inbounds { i64, i64 }, { i64, i64 }* %_7, i32 0, i32 1
  %15 = load i64, i64* %14, align 8
  %16 = icmp eq i64 %15, 0
  %_9 = select i1 %16, i64 1, i64 0
  switch i64 %_9, label %bb7 [
    i64 0, label %bb8
    i64 1, label %bb6
  ]

bb7:                                              ; preds = %bb5
  unreachable

bb8:                                              ; preds = %bb5
  %17 = getelementptr inbounds { i64, i64 }, { i64, i64 }* %_7, i32 0, i32 0
  %layout.0 = load i64, i64* %17, align 8
  %18 = getelementptr inbounds { i64, i64 }, { i64, i64 }* %_7, i32 0, i32 1
  %layout.1 = load i64, i64* %18, align 8, !range !6, !noundef !3
  %19 = getelementptr inbounds { i64, i64 }, { i64, i64 }* %layout, i32 0, i32 0
  store i64 %layout.0, i64* %19, align 8
  %20 = getelementptr inbounds { i64, i64 }, { i64, i64 }* %layout, i32 0, i32 1
  store i64 %layout.1, i64* %20, align 8
; invoke core::alloc::layout::Layout::size
  %_12 = invoke i64 @_ZN4core5alloc6layout6Layout4size17h5764bde82d290296E({ i64, i64 }* align 8 %layout)
          to label %bb9 unwind label %cleanup

bb6:                                              ; preds = %bb5
; invoke alloc::raw_vec::capacity_overflow
  invoke void @_ZN5alloc7raw_vec17capacity_overflow17haf6de5c917163104E() #16
          to label %unreachable unwind label %cleanup

unreachable:                                      ; preds = %bb20, %bb11, %bb6
  unreachable

bb9:                                              ; preds = %bb8
; invoke alloc::raw_vec::alloc_guard
  invoke void @_ZN5alloc7raw_vec11alloc_guard17h358c45208dc4e8f1E(%"core::result::Result<(), alloc::collections::TryReserveError>"* sret(%"core::result::Result<(), alloc::collections::TryReserveError>") %_11, i64 %_12)
          to label %bb10 unwind label %cleanup

bb10:                                             ; preds = %bb9
  %21 = bitcast %"core::result::Result<(), alloc::collections::TryReserveError>"* %_11 to i64*
  %_14 = load i64, i64* %21, align 8, !range !5, !noundef !3
  switch i64 %_14, label %bb12 [
    i64 0, label %bb13
    i64 1, label %bb11
  ]

bb12:                                             ; preds = %bb10
  unreachable

bb13:                                             ; preds = %bb10
  %22 = load i8, i8* %init, align 1, !range !4, !noundef !3
  %23 = trunc i8 %22 to i1
  %_16 = zext i1 %23 to i64
  switch i64 %_16, label %bb15 [
    i64 0, label %bb16
    i64 1, label %bb14
  ]

bb11:                                             ; preds = %bb10
; invoke alloc::raw_vec::capacity_overflow
  invoke void @_ZN5alloc7raw_vec17capacity_overflow17haf6de5c917163104E() #16
          to label %unreachable unwind label %cleanup

bb15:                                             ; preds = %bb13
  unreachable

bb16:                                             ; preds = %bb13
  %24 = getelementptr inbounds { i64, i64 }, { i64, i64 }* %layout, i32 0, i32 0
  %_18.0 = load i64, i64* %24, align 8
  %25 = getelementptr inbounds { i64, i64 }, { i64, i64 }* %layout, i32 0, i32 1
  %_18.1 = load i64, i64* %25, align 8, !range !6, !noundef !3
; invoke <alloc::alloc::Global as core::alloc::Allocator>::allocate
  %26 = invoke { i8*, i64 } @"_ZN63_$LT$alloc..alloc..Global$u20$as$u20$core..alloc..Allocator$GT$8allocate17h62758511a30eafffE"(%"alloc::alloc::Global"* align 1 %alloc, i64 %_18.0, i64 %_18.1)
          to label %bb17 unwind label %cleanup

bb14:                                             ; preds = %bb13
  %27 = getelementptr inbounds { i64, i64 }, { i64, i64 }* %layout, i32 0, i32 0
  %_20.0 = load i64, i64* %27, align 8
  %28 = getelementptr inbounds { i64, i64 }, { i64, i64 }* %layout, i32 0, i32 1
  %_20.1 = load i64, i64* %28, align 8, !range !6, !noundef !3
; invoke <alloc::alloc::Global as core::alloc::Allocator>::allocate_zeroed
  %29 = invoke { i8*, i64 } @"_ZN63_$LT$alloc..alloc..Global$u20$as$u20$core..alloc..Allocator$GT$15allocate_zeroed17hcf9be8a983d269eeE"(%"alloc::alloc::Global"* align 1 %alloc, i64 %_20.0, i64 %_20.1)
          to label %bb18 unwind label %cleanup

bb18:                                             ; preds = %bb14
  store { i8*, i64 } %29, { i8*, i64 }* %result, align 8
  br label %bb19

bb19:                                             ; preds = %bb17, %bb18
  %30 = bitcast { i8*, i64 }* %result to {}**
  %31 = load {}*, {}** %30, align 8
  %32 = icmp eq {}* %31, null
  %_22 = select i1 %32, i64 1, i64 0
  switch i64 %_22, label %bb21 [
    i64 0, label %bb22
    i64 1, label %bb20
  ]

bb17:                                             ; preds = %bb16
  store { i8*, i64 } %26, { i8*, i64 }* %result, align 8
  br label %bb19

bb21:                                             ; preds = %bb19
  unreachable

bb22:                                             ; preds = %bb19
  %33 = getelementptr inbounds { i8*, i64 }, { i8*, i64 }* %result, i32 0, i32 0
  %ptr.0 = load i8*, i8** %33, align 8, !nonnull !3, !noundef !3
  %34 = getelementptr inbounds { i8*, i64 }, { i8*, i64 }* %result, i32 0, i32 1
  %ptr.1 = load i64, i64* %34, align 8
; invoke core::ptr::non_null::NonNull<T>::cast
  %_27 = invoke i8* @"_ZN4core3ptr8non_null16NonNull$LT$T$GT$4cast17hc8741d4ccbebf302E"(i8* %ptr.0, i64 %ptr.1)
          to label %bb23 unwind label %cleanup

bb20:                                             ; preds = %bb19
  %35 = getelementptr inbounds { i64, i64 }, { i64, i64 }* %layout, i32 0, i32 0
  %_24.0 = load i64, i64* %35, align 8
  %36 = getelementptr inbounds { i64, i64 }, { i64, i64 }* %layout, i32 0, i32 1
  %_24.1 = load i64, i64* %36, align 8, !range !6, !noundef !3
; invoke alloc::alloc::handle_alloc_error
  invoke void @_ZN5alloc5alloc18handle_alloc_error17h8a1b87478ca53e40E(i64 %_24.0, i64 %_24.1) #16
          to label %unreachable unwind label %cleanup

bb23:                                             ; preds = %bb22
; invoke core::ptr::non_null::NonNull<T>::as_ptr
  %_26 = invoke i8* @"_ZN4core3ptr8non_null16NonNull$LT$T$GT$6as_ptr17h1665b628b2ca40dfE"(i8* %_27)
          to label %bb24 unwind label %cleanup

bb24:                                             ; preds = %bb23
; invoke core::ptr::unique::Unique<T>::new_unchecked
  %_25 = invoke i8* @"_ZN4core3ptr6unique15Unique$LT$T$GT$13new_unchecked17h7b42ba31dfb777abE"(i8* %_26)
          to label %bb25 unwind label %cleanup

bb25:                                             ; preds = %bb24
  store i8 0, i8* %_31, align 1
  %37 = bitcast { i8*, i64 }* %2 to i8**
  store i8* %_25, i8** %37, align 8
  %38 = getelementptr inbounds { i8*, i64 }, { i8*, i64 }* %2, i32 0, i32 1
  store i64 %capacity, i64* %38, align 8
  %39 = bitcast { i8*, i64 }* %2 to %"alloc::alloc::Global"*
  br label %bb26

bb26:                                             ; preds = %bb3, %bb25
  %40 = getelementptr inbounds { i8*, i64 }, { i8*, i64 }* %2, i32 0, i32 0
  %41 = load i8*, i8** %40, align 8, !nonnull !3, !noundef !3
  %42 = getelementptr inbounds { i8*, i64 }, { i8*, i64 }* %2, i32 0, i32 1
  %43 = load i64, i64* %42, align 8
  %44 = insertvalue { i8*, i64 } undef, i8* %41, 0
  %45 = insertvalue { i8*, i64 } %44, i64 %43, 1
  ret { i8*, i64 } %45

bb3:                                              ; preds = %bb2
  store { i8*, i64 } %12, { i8*, i64 }* %2, align 8
  br label %bb26

bb27:                                             ; preds = %bb28, %bb29
  %46 = bitcast { i8*, i32 }* %1 to i8**
  %47 = load i8*, i8** %46, align 8
  %48 = getelementptr inbounds { i8*, i32 }, { i8*, i32 }* %1, i32 0, i32 1
  %49 = load i32, i32* %48, align 8
  %50 = insertvalue { i8*, i32 } undef, i8* %47, 0
  %51 = insertvalue { i8*, i32 } %50, i32 %49, 1
  resume { i8*, i32 } %51

bb28:                                             ; preds = %bb29
  br label %bb27
}

; alloc::raw_vec::RawVec<T,A>::current_memory
; Function Attrs: nonlazybind uwtable
define internal void @"_ZN5alloc7raw_vec19RawVec$LT$T$C$A$GT$14current_memory17h173108b55c64e0c3E"(%"core::option::Option<(core::ptr::non_null::NonNull<u8>, core::alloc::layout::Layout)>"* sret(%"core::option::Option<(core::ptr::non_null::NonNull<u8>, core::alloc::layout::Layout)>") %0, { i8*, i64 }* align 8 %self) unnamed_addr #2 {
start:
  %_9 = alloca { i8*, { i64, i64 } }, align 8
  %_2 = alloca i8, align 1
  br label %bb4

bb4:                                              ; preds = %start
  %1 = icmp eq i64 1, 0
  br i1 %1, label %bb1, label %bb2

bb1:                                              ; preds = %bb4
  store i8 1, i8* %_2, align 1
  br label %bb3

bb2:                                              ; preds = %bb4
  %2 = getelementptr inbounds { i8*, i64 }, { i8*, i64 }* %self, i32 0, i32 1
  %_5 = load i64, i64* %2, align 8
  %_4 = icmp eq i64 %_5, 0
  %3 = zext i1 %_4 to i8
  store i8 %3, i8* %_2, align 1
  br label %bb3

bb3:                                              ; preds = %bb1, %bb2
  %4 = load i8, i8* %_2, align 1, !range !4, !noundef !3
  %5 = trunc i8 %4 to i1
  br i1 %5, label %bb5, label %bb6

bb6:                                              ; preds = %bb3
  %6 = getelementptr inbounds { i8*, i64 }, { i8*, i64 }* %self, i32 0, i32 1
  %_8 = load i64, i64* %6, align 8
; call core::alloc::layout::Layout::array
  %7 = call { i64, i64 } @_ZN4core5alloc6layout6Layout5array17h355012a979476f41E(i64 %_8)
  %_7.0 = extractvalue { i64, i64 } %7, 0
  %_7.1 = extractvalue { i64, i64 } %7, 1
  br label %bb7

bb5:                                              ; preds = %bb3
  %8 = bitcast %"core::option::Option<(core::ptr::non_null::NonNull<u8>, core::alloc::layout::Layout)>"* %0 to {}**
  store {}* null, {}** %8, align 8
  br label %bb11

bb11:                                             ; preds = %bb10, %bb5
  ret void

bb7:                                              ; preds = %bb6
; call core::result::Result<T,E>::unwrap_unchecked
  %9 = call { i64, i64 } @"_ZN4core6result19Result$LT$T$C$E$GT$16unwrap_unchecked17he98a1549d1bda0ddE"(i64 %_7.0, i64 %_7.1, %"core::panic::location::Location"* align 8 bitcast (<{ i8*, [16 x i8] }>* @alloc41 to %"core::panic::location::Location"*))
  %layout.0 = extractvalue { i64, i64 } %9, 0
  %layout.1 = extractvalue { i64, i64 } %9, 1
  br label %bb8

bb8:                                              ; preds = %bb7
  %10 = bitcast { i8*, i64 }* %self to i8**
  %_12 = load i8*, i8** %10, align 8, !nonnull !3, !noundef !3
; call core::ptr::unique::Unique<T>::cast
  %_11 = call i8* @"_ZN4core3ptr6unique15Unique$LT$T$GT$4cast17hec3e2ee2f71fa8c1E"(i8* %_12)
  br label %bb9

bb9:                                              ; preds = %bb8
; call <T as core::convert::Into<U>>::into
  %_10 = call i8* @"_ZN50_$LT$T$u20$as$u20$core..convert..Into$LT$U$GT$$GT$4into17ha87890d456e31066E"(i8* %_11)
  br label %bb10

bb10:                                             ; preds = %bb9
  %11 = bitcast { i8*, { i64, i64 } }* %_9 to i8**
  store i8* %_10, i8** %11, align 8
  %12 = getelementptr inbounds { i8*, { i64, i64 } }, { i8*, { i64, i64 } }* %_9, i32 0, i32 1
  %13 = getelementptr inbounds { i64, i64 }, { i64, i64 }* %12, i32 0, i32 0
  store i64 %layout.0, i64* %13, align 8
  %14 = getelementptr inbounds { i64, i64 }, { i64, i64 }* %12, i32 0, i32 1
  store i64 %layout.1, i64* %14, align 8
  %15 = bitcast %"core::option::Option<(core::ptr::non_null::NonNull<u8>, core::alloc::layout::Layout)>"* %0 to %"core::option::Option<(core::ptr::non_null::NonNull<u8>, core::alloc::layout::Layout)>::Some"*
  %16 = bitcast %"core::option::Option<(core::ptr::non_null::NonNull<u8>, core::alloc::layout::Layout)>::Some"* %15 to { i8*, { i64, i64 } }*
  %17 = bitcast { i8*, { i64, i64 } }* %16 to i8*
  %18 = bitcast { i8*, { i64, i64 } }* %_9 to i8*
  call void @llvm.memcpy.p0i8.p0i8.i64(i8* align 8 %17, i8* align 8 %18, i64 24, i1 false)
  br label %bb11
}

; alloc::raw_vec::RawVec<T,A>::with_capacity_in
; Function Attrs: inlinehint nonlazybind uwtable
define internal { i8*, i64 } @"_ZN5alloc7raw_vec19RawVec$LT$T$C$A$GT$16with_capacity_in17ha0ab696d1676c46eE"(i64 %capacity) unnamed_addr #0 {
start:
  %_4 = alloca i8, align 1
  store i8 0, i8* %_4, align 1
  %0 = load i8, i8* %_4, align 1, !range !4, !noundef !3
  %1 = trunc i8 %0 to i1
; call alloc::raw_vec::RawVec<T,A>::allocate_in
  %2 = call { i8*, i64 } @"_ZN5alloc7raw_vec19RawVec$LT$T$C$A$GT$11allocate_in17ha98bd03bf48131e6E"(i64 %capacity, i1 zeroext %1)
  %3 = extractvalue { i8*, i64 } %2, 0
  %4 = extractvalue { i8*, i64 } %2, 1
  br label %bb1

bb1:                                              ; preds = %start
  %5 = insertvalue { i8*, i64 } undef, i8* %3, 0
  %6 = insertvalue { i8*, i64 } %5, i64 %4, 1
  ret { i8*, i64 } %6
}

; alloc::raw_vec::RawVec<T,A>::ptr
; Function Attrs: inlinehint nonlazybind uwtable
define internal i8* @"_ZN5alloc7raw_vec19RawVec$LT$T$C$A$GT$3ptr17hfe04f37e754c2230E"({ i8*, i64 }* align 8 %self) unnamed_addr #0 {
start:
  %0 = bitcast { i8*, i64 }* %self to i8**
  %_2 = load i8*, i8** %0, align 8, !nonnull !3, !noundef !3
; call core::ptr::unique::Unique<T>::as_ptr
  %1 = call i8* @"_ZN4core3ptr6unique15Unique$LT$T$GT$6as_ptr17h999fb5059954691eE"(i8* %_2)
  br label %bb1

bb1:                                              ; preds = %start
  ret i8* %1
}

; alloc::raw_vec::RawVec<T,A>::new_in
; Function Attrs: nonlazybind uwtable
define internal { i8*, i64 } @"_ZN5alloc7raw_vec19RawVec$LT$T$C$A$GT$6new_in17h88079ced508c7c0cE"() unnamed_addr #2 personality i32 (i32, i32, i64, %"unwind::libunwind::_Unwind_Exception"*, %"unwind::libunwind::_Unwind_Context"*)* @rust_eh_personality {
start:
  %0 = alloca { i8*, i32 }, align 8
  %1 = alloca { i8*, i64 }, align 8
; invoke core::ptr::unique::Unique<T>::dangling
  %_2 = invoke i8* @"_ZN4core3ptr6unique15Unique$LT$T$GT$8dangling17h6f4fc22d53e810c9E"()
          to label %bb1 unwind label %cleanup

bb2:                                              ; preds = %cleanup
  br label %bb3

cleanup:                                          ; preds = %start
  %2 = landingpad { i8*, i32 }
          cleanup
  %3 = extractvalue { i8*, i32 } %2, 0
  %4 = extractvalue { i8*, i32 } %2, 1
  %5 = getelementptr inbounds { i8*, i32 }, { i8*, i32 }* %0, i32 0, i32 0
  store i8* %3, i8** %5, align 8
  %6 = getelementptr inbounds { i8*, i32 }, { i8*, i32 }* %0, i32 0, i32 1
  store i32 %4, i32* %6, align 8
  br label %bb2

bb1:                                              ; preds = %start
  %7 = bitcast { i8*, i64 }* %1 to i8**
  store i8* %_2, i8** %7, align 8
  %8 = getelementptr inbounds { i8*, i64 }, { i8*, i64 }* %1, i32 0, i32 1
  store i64 0, i64* %8, align 8
  %9 = bitcast { i8*, i64 }* %1 to %"alloc::alloc::Global"*
  %10 = getelementptr inbounds { i8*, i64 }, { i8*, i64 }* %1, i32 0, i32 0
  %11 = load i8*, i8** %10, align 8, !nonnull !3, !noundef !3
  %12 = getelementptr inbounds { i8*, i64 }, { i8*, i64 }* %1, i32 0, i32 1
  %13 = load i64, i64* %12, align 8
  %14 = insertvalue { i8*, i64 } undef, i8* %11, 0
  %15 = insertvalue { i8*, i64 } %14, i64 %13, 1
  ret { i8*, i64 } %15

bb3:                                              ; preds = %bb2
  %16 = bitcast { i8*, i32 }* %0 to i8**
  %17 = load i8*, i8** %16, align 8
  %18 = getelementptr inbounds { i8*, i32 }, { i8*, i32 }* %0, i32 0, i32 1
  %19 = load i32, i32* %18, align 8
  %20 = insertvalue { i8*, i32 } undef, i8* %17, 0
  %21 = insertvalue { i8*, i32 } %20, i32 %19, 1
  resume { i8*, i32 } %21
}

; <I as core::iter::traits::collect::IntoIterator>::into_iter
; Function Attrs: inlinehint nonlazybind uwtable
define internal { i64, i64 } @"_ZN63_$LT$I$u20$as$u20$core..iter..traits..collect..IntoIterator$GT$9into_iter17hc6e8af867151a5b7E"(i64 %self.0, i64 %self.1) unnamed_addr #0 {
start:
  %0 = insertvalue { i64, i64 } undef, i64 %self.0, 0
  %1 = insertvalue { i64, i64 } %0, i64 %self.1, 1
  ret { i64, i64 } %1
}

; <alloc::alloc::Global as core::alloc::Allocator>::deallocate
; Function Attrs: inlinehint nonlazybind uwtable
define internal void @"_ZN63_$LT$alloc..alloc..Global$u20$as$u20$core..alloc..Allocator$GT$10deallocate17hba660725f2781731E"(%"alloc::alloc::Global"* align 1 %self, i8* %ptr, i64 %0, i64 %1) unnamed_addr #0 {
start:
  %layout = alloca { i64, i64 }, align 8
  %2 = getelementptr inbounds { i64, i64 }, { i64, i64 }* %layout, i32 0, i32 0
  store i64 %0, i64* %2, align 8
  %3 = getelementptr inbounds { i64, i64 }, { i64, i64 }* %layout, i32 0, i32 1
  store i64 %1, i64* %3, align 8
; call core::alloc::layout::Layout::size
  %_4 = call i64 @_ZN4core5alloc6layout6Layout4size17h5764bde82d290296E({ i64, i64 }* align 8 %layout)
  br label %bb1

bb1:                                              ; preds = %start
  %4 = icmp eq i64 %_4, 0
  br i1 %4, label %bb5, label %bb2

bb5:                                              ; preds = %bb1
  br label %bb6

bb2:                                              ; preds = %bb1
; call core::ptr::non_null::NonNull<T>::as_ptr
  %_6 = call i8* @"_ZN4core3ptr8non_null16NonNull$LT$T$GT$6as_ptr17h1665b628b2ca40dfE"(i8* %ptr)
  br label %bb3

bb3:                                              ; preds = %bb2
  %5 = getelementptr inbounds { i64, i64 }, { i64, i64 }* %layout, i32 0, i32 0
  %_8.0 = load i64, i64* %5, align 8
  %6 = getelementptr inbounds { i64, i64 }, { i64, i64 }* %layout, i32 0, i32 1
  %_8.1 = load i64, i64* %6, align 8, !range !6, !noundef !3
; call alloc::alloc::dealloc
  call void @_ZN5alloc5alloc7dealloc17h04443f5d42530c71E(i8* %_6, i64 %_8.0, i64 %_8.1)
  br label %bb4

bb4:                                              ; preds = %bb3
  br label %bb6

bb6:                                              ; preds = %bb5, %bb4
  ret void
}

; <alloc::alloc::Global as core::alloc::Allocator>::allocate_zeroed
; Function Attrs: inlinehint nonlazybind uwtable
define internal { i8*, i64 } @"_ZN63_$LT$alloc..alloc..Global$u20$as$u20$core..alloc..Allocator$GT$15allocate_zeroed17hcf9be8a983d269eeE"(%"alloc::alloc::Global"* align 1 %self, i64 %layout.0, i64 %layout.1) unnamed_addr #0 {
start:
; call alloc::alloc::Global::alloc_impl
  %0 = call { i8*, i64 } @_ZN5alloc5alloc6Global10alloc_impl17h191df09cde4eb35cE(%"alloc::alloc::Global"* align 1 %self, i64 %layout.0, i64 %layout.1, i1 zeroext true)
  %1 = extractvalue { i8*, i64 } %0, 0
  %2 = extractvalue { i8*, i64 } %0, 1
  br label %bb1

bb1:                                              ; preds = %start
  %3 = insertvalue { i8*, i64 } undef, i8* %1, 0
  %4 = insertvalue { i8*, i64 } %3, i64 %2, 1
  ret { i8*, i64 } %4
}

; <alloc::alloc::Global as core::alloc::Allocator>::allocate
; Function Attrs: inlinehint nonlazybind uwtable
define internal { i8*, i64 } @"_ZN63_$LT$alloc..alloc..Global$u20$as$u20$core..alloc..Allocator$GT$8allocate17h62758511a30eafffE"(%"alloc::alloc::Global"* align 1 %self, i64 %layout.0, i64 %layout.1) unnamed_addr #0 {
start:
; call alloc::alloc::Global::alloc_impl
  %0 = call { i8*, i64 } @_ZN5alloc5alloc6Global10alloc_impl17h191df09cde4eb35cE(%"alloc::alloc::Global"* align 1 %self, i64 %layout.0, i64 %layout.1, i1 zeroext false)
  %1 = extractvalue { i8*, i64 } %0, 0
  %2 = extractvalue { i8*, i64 } %0, 1
  br label %bb1

bb1:                                              ; preds = %start
  %3 = insertvalue { i8*, i64 } undef, i8* %1, 0
  %4 = insertvalue { i8*, i64 } %3, i64 %2, 1
  ret { i8*, i64 } %4
}

; <alloc::string::String as core::ops::deref::DerefMut>::deref_mut
; Function Attrs: inlinehint nonlazybind uwtable
define internal { [0 x i8]*, i64 } @"_ZN68_$LT$alloc..string..String$u20$as$u20$core..ops..deref..DerefMut$GT$9deref_mut17h8cce13a6626e2aa8E"(%"alloc::string::String"* align 8 %self) unnamed_addr #0 {
start:
  %_8 = bitcast %"alloc::string::String"* %self to %"alloc::vec::Vec<u8>"*
; call <alloc::vec::Vec<T,A> as core::ops::deref::DerefMut>::deref_mut
  %0 = call { [0 x i8]*, i64 } @"_ZN75_$LT$alloc..vec..Vec$LT$T$C$A$GT$$u20$as$u20$core..ops..deref..DerefMut$GT$9deref_mut17haa6f02947f6f3a9cE"(%"alloc::vec::Vec<u8>"* align 8 %_8)
  %_7.0 = extractvalue { [0 x i8]*, i64 } %0, 0
  %_7.1 = extractvalue { [0 x i8]*, i64 } %0, 1
  br label %bb1

bb1:                                              ; preds = %start
; call core::str::converts::from_utf8_unchecked_mut
  %1 = call { [0 x i8]*, i64 } @_ZN4core3str8converts23from_utf8_unchecked_mut17h9b32ca2e8f3a1f4dE([0 x i8]* align 1 %_7.0, i64 %_7.1)
  %_4.0 = extractvalue { [0 x i8]*, i64 } %1, 0
  %_4.1 = extractvalue { [0 x i8]*, i64 } %1, 1
  br label %bb2

bb2:                                              ; preds = %bb1
  %2 = insertvalue { [0 x i8]*, i64 } undef, [0 x i8]* %_4.0, 0
  %3 = insertvalue { [0 x i8]*, i64 } %2, i64 %_4.1, 1
  ret { [0 x i8]*, i64 } %3
}

; <std::process::ExitCode as std::process::Termination>::report
; Function Attrs: inlinehint nonlazybind uwtable
define internal i8 @"_ZN68_$LT$std..process..ExitCode$u20$as$u20$std..process..Termination$GT$6report17h46ea44827fe76bf0E"(i8 %self) unnamed_addr #0 {
start:
  ret i8 %self
}

; <alloc::vec::Vec<T,A> as core::ops::drop::Drop>::drop
; Function Attrs: nonlazybind uwtable
define internal void @"_ZN70_$LT$alloc..vec..Vec$LT$T$C$A$GT$$u20$as$u20$core..ops..drop..Drop$GT$4drop17h3e3fb27efdb782d1E"(%"alloc::vec::Vec<u8>"* align 8 %self) unnamed_addr #2 {
start:
; call alloc::vec::Vec<T,A>::as_mut_ptr
  %_3 = call i8* @"_ZN5alloc3vec16Vec$LT$T$C$A$GT$10as_mut_ptr17h51990565255f5167E"(%"alloc::vec::Vec<u8>"* align 8 %self)
  br label %bb1

bb1:                                              ; preds = %start
  %0 = getelementptr inbounds %"alloc::vec::Vec<u8>", %"alloc::vec::Vec<u8>"* %self, i32 0, i32 1
  %_5 = load i64, i64* %0, align 8
; call core::ptr::slice_from_raw_parts_mut
  %1 = call { [0 x i8]*, i64 } @_ZN4core3ptr24slice_from_raw_parts_mut17hbf4b87a8a9a7985cE(i8* %_3, i64 %_5)
  %_2.0 = extractvalue { [0 x i8]*, i64 } %1, 0
  %_2.1 = extractvalue { [0 x i8]*, i64 } %1, 1
  br label %bb2

bb2:                                              ; preds = %bb1
  br label %bb3

bb3:                                              ; preds = %bb2
  ret void
}

; <alloc::vec::Vec<T,A> as core::ops::deref::DerefMut>::deref_mut
; Function Attrs: nonlazybind uwtable
define internal { [0 x i8]*, i64 } @"_ZN75_$LT$alloc..vec..Vec$LT$T$C$A$GT$$u20$as$u20$core..ops..deref..DerefMut$GT$9deref_mut17haa6f02947f6f3a9cE"(%"alloc::vec::Vec<u8>"* align 8 %self) unnamed_addr #2 {
start:
; call alloc::vec::Vec<T,A>::as_mut_ptr
  %_5 = call i8* @"_ZN5alloc3vec16Vec$LT$T$C$A$GT$10as_mut_ptr17h51990565255f5167E"(%"alloc::vec::Vec<u8>"* align 8 %self)
  br label %bb1

bb1:                                              ; preds = %start
  %0 = getelementptr inbounds %"alloc::vec::Vec<u8>", %"alloc::vec::Vec<u8>"* %self, i32 0, i32 1
  %_7 = load i64, i64* %0, align 8
; call core::slice::raw::from_raw_parts_mut
  %1 = call { [0 x i8]*, i64 } @_ZN4core5slice3raw18from_raw_parts_mut17hb30404c501e32fe4E(i8* %_5, i64 %_7)
  %_4.0 = extractvalue { [0 x i8]*, i64 } %1, 0
  %_4.1 = extractvalue { [0 x i8]*, i64 } %1, 1
  br label %bb2

bb2:                                              ; preds = %bb1
  %2 = insertvalue { [0 x i8]*, i64 } undef, [0 x i8]* %_4.0, 0
  %3 = insertvalue { [0 x i8]*, i64 } %2, i64 %_4.1, 1
  ret { [0 x i8]*, i64 } %3
}

; <alloc::string::String as core::convert::From<&str>>::from
; Function Attrs: inlinehint nonlazybind uwtable
define internal void @"_ZN76_$LT$alloc..string..String$u20$as$u20$core..convert..From$LT$$RF$str$GT$$GT$4from17ha05bee858a0cbed7E"(%"alloc::string::String"* sret(%"alloc::string::String") %0, [0 x i8]* align 1 %s.0, i64 %s.1) unnamed_addr #0 {
start:
; call alloc::str::<impl alloc::borrow::ToOwned for str>::to_owned
  call void @"_ZN5alloc3str56_$LT$impl$u20$alloc..borrow..ToOwned$u20$for$u20$str$GT$8to_owned17h678ceee8dfa3b33dE"(%"alloc::string::String"* sret(%"alloc::string::String") %0, [0 x i8]* align 1 %s.0, i64 %s.1)
  br label %bb1

bb1:                                              ; preds = %start
  ret void
}

; <alloc::raw_vec::RawVec<T,A> as core::ops::drop::Drop>::drop
; Function Attrs: nonlazybind uwtable
define internal void @"_ZN77_$LT$alloc..raw_vec..RawVec$LT$T$C$A$GT$$u20$as$u20$core..ops..drop..Drop$GT$4drop17h9a2707b14b1165c7E"({ i8*, i64 }* align 8 %self) unnamed_addr #2 {
start:
  %_2 = alloca %"core::option::Option<(core::ptr::non_null::NonNull<u8>, core::alloc::layout::Layout)>", align 8
; call alloc::raw_vec::RawVec<T,A>::current_memory
  call void @"_ZN5alloc7raw_vec19RawVec$LT$T$C$A$GT$14current_memory17h173108b55c64e0c3E"(%"core::option::Option<(core::ptr::non_null::NonNull<u8>, core::alloc::layout::Layout)>"* sret(%"core::option::Option<(core::ptr::non_null::NonNull<u8>, core::alloc::layout::Layout)>") %_2, { i8*, i64 }* align 8 %self)
  br label %bb1

bb1:                                              ; preds = %start
  %0 = bitcast %"core::option::Option<(core::ptr::non_null::NonNull<u8>, core::alloc::layout::Layout)>"* %_2 to {}**
  %1 = load {}*, {}** %0, align 8
  %2 = icmp eq {}* %1, null
  %_4 = select i1 %2, i64 0, i64 1
  %3 = icmp eq i64 %_4, 1
  br i1 %3, label %bb2, label %bb4

bb2:                                              ; preds = %bb1
  %4 = bitcast %"core::option::Option<(core::ptr::non_null::NonNull<u8>, core::alloc::layout::Layout)>"* %_2 to %"core::option::Option<(core::ptr::non_null::NonNull<u8>, core::alloc::layout::Layout)>::Some"*
  %5 = bitcast %"core::option::Option<(core::ptr::non_null::NonNull<u8>, core::alloc::layout::Layout)>::Some"* %4 to { i8*, { i64, i64 } }*
  %6 = bitcast { i8*, { i64, i64 } }* %5 to i8**
  %ptr = load i8*, i8** %6, align 8, !nonnull !3, !noundef !3
  %7 = bitcast %"core::option::Option<(core::ptr::non_null::NonNull<u8>, core::alloc::layout::Layout)>"* %_2 to %"core::option::Option<(core::ptr::non_null::NonNull<u8>, core::alloc::layout::Layout)>::Some"*
  %8 = bitcast %"core::option::Option<(core::ptr::non_null::NonNull<u8>, core::alloc::layout::Layout)>::Some"* %7 to { i8*, { i64, i64 } }*
  %9 = getelementptr inbounds { i8*, { i64, i64 } }, { i8*, { i64, i64 } }* %8, i32 0, i32 1
  %10 = getelementptr inbounds { i64, i64 }, { i64, i64 }* %9, i32 0, i32 0
  %layout.0 = load i64, i64* %10, align 8
  %11 = getelementptr inbounds { i64, i64 }, { i64, i64 }* %9, i32 0, i32 1
  %layout.1 = load i64, i64* %11, align 8, !range !6, !noundef !3
  %_7 = bitcast { i8*, i64 }* %self to %"alloc::alloc::Global"*
; call <alloc::alloc::Global as core::alloc::Allocator>::deallocate
  call void @"_ZN63_$LT$alloc..alloc..Global$u20$as$u20$core..alloc..Allocator$GT$10deallocate17hba660725f2781731E"(%"alloc::alloc::Global"* align 1 %_7, i8* %ptr, i64 %layout.0, i64 %layout.1)
  br label %bb3

bb4:                                              ; preds = %bb3, %bb1
  ret void

bb3:                                              ; preds = %bb2
  br label %bb4
}

; <core::result::Result<T,E> as core::ops::try_trait::Try>::branch
; Function Attrs: inlinehint nonlazybind uwtable
define internal i8* @"_ZN79_$LT$core..result..Result$LT$T$C$E$GT$$u20$as$u20$core..ops..try_trait..Try$GT$6branch17h1326bcfbb9bff632E"(i8* %0) unnamed_addr #0 {
start:
  %_6 = alloca %"core::result::Result<core::convert::Infallible, core::alloc::AllocError>::Err", align 1
  %1 = alloca i8*, align 8
  %self = alloca i8*, align 8
  store i8* %0, i8** %self, align 8
  %2 = bitcast i8** %self to {}**
  %3 = load {}*, {}** %2, align 8
  %4 = icmp eq {}* %3, null
  %_2 = select i1 %4, i64 1, i64 0
  switch i64 %_2, label %bb2 [
    i64 0, label %bb3
    i64 1, label %bb1
  ]

bb2:                                              ; preds = %start
  unreachable

bb3:                                              ; preds = %start
  %v = load i8*, i8** %self, align 8, !nonnull !3, !noundef !3
  store i8* %v, i8** %1, align 8
  br label %bb4

bb1:                                              ; preds = %start
  %5 = bitcast %"core::result::Result<core::convert::Infallible, core::alloc::AllocError>::Err"* %_6 to %"core::alloc::AllocError"*
  %6 = bitcast i8** %1 to %"core::ops::control_flow::ControlFlow<core::result::Result<core::convert::Infallible, core::alloc::AllocError>, core::ptr::non_null::NonNull<u8>>::Break"*
  %7 = bitcast %"core::ops::control_flow::ControlFlow<core::result::Result<core::convert::Infallible, core::alloc::AllocError>, core::ptr::non_null::NonNull<u8>>::Break"* %6 to %"core::result::Result<core::convert::Infallible, core::alloc::AllocError>::Err"*
  %8 = bitcast i8** %1 to {}**
  store {}* null, {}** %8, align 8
  br label %bb4

bb4:                                              ; preds = %bb3, %bb1
  %9 = load i8*, i8** %1, align 8
  ret i8* %9
}

; <core::result::Result<T,E> as core::ops::try_trait::Try>::branch
; Function Attrs: inlinehint nonlazybind uwtable
define internal { i64, i64 } @"_ZN79_$LT$core..result..Result$LT$T$C$E$GT$$u20$as$u20$core..ops..try_trait..Try$GT$6branch17hcd5d411e38aac4f8E"(i64 %0, i64 %1) unnamed_addr #0 {
start:
  %_6 = alloca %"core::result::Result<core::convert::Infallible, core::alloc::layout::LayoutError>::Err", align 1
  %2 = alloca { i64, i64 }, align 8
  %self = alloca { i64, i64 }, align 8
  %3 = getelementptr inbounds { i64, i64 }, { i64, i64 }* %self, i32 0, i32 0
  store i64 %0, i64* %3, align 8
  %4 = getelementptr inbounds { i64, i64 }, { i64, i64 }* %self, i32 0, i32 1
  store i64 %1, i64* %4, align 8
  %5 = bitcast { i64, i64 }* %self to i64*
  %_2 = load i64, i64* %5, align 8, !range !5, !noundef !3
  switch i64 %_2, label %bb2 [
    i64 0, label %bb3
    i64 1, label %bb1
  ]

bb2:                                              ; preds = %start
  unreachable

bb3:                                              ; preds = %start
  %6 = bitcast { i64, i64 }* %self to %"core::result::Result<usize, core::alloc::layout::LayoutError>::Ok"*
  %7 = getelementptr inbounds %"core::result::Result<usize, core::alloc::layout::LayoutError>::Ok", %"core::result::Result<usize, core::alloc::layout::LayoutError>::Ok"* %6, i32 0, i32 1
  %v = load i64, i64* %7, align 8
  %8 = bitcast { i64, i64 }* %2 to %"core::ops::control_flow::ControlFlow<core::result::Result<core::convert::Infallible, core::alloc::layout::LayoutError>, usize>::Continue"*
  %9 = getelementptr inbounds %"core::ops::control_flow::ControlFlow<core::result::Result<core::convert::Infallible, core::alloc::layout::LayoutError>, usize>::Continue", %"core::ops::control_flow::ControlFlow<core::result::Result<core::convert::Infallible, core::alloc::layout::LayoutError>, usize>::Continue"* %8, i32 0, i32 1
  store i64 %v, i64* %9, align 8
  %10 = bitcast { i64, i64 }* %2 to i64*
  store i64 0, i64* %10, align 8
  br label %bb4

bb1:                                              ; preds = %start
  %11 = bitcast %"core::result::Result<core::convert::Infallible, core::alloc::layout::LayoutError>::Err"* %_6 to %"core::alloc::layout::LayoutError"*
  %12 = bitcast { i64, i64 }* %2 to %"core::ops::control_flow::ControlFlow<core::result::Result<core::convert::Infallible, core::alloc::layout::LayoutError>, usize>::Break"*
  %13 = getelementptr inbounds %"core::ops::control_flow::ControlFlow<core::result::Result<core::convert::Infallible, core::alloc::layout::LayoutError>, usize>::Break", %"core::ops::control_flow::ControlFlow<core::result::Result<core::convert::Infallible, core::alloc::layout::LayoutError>, usize>::Break"* %12, i32 0, i32 1
  %14 = bitcast { i64, i64 }* %2 to i64*
  store i64 1, i64* %14, align 8
  br label %bb4

bb4:                                              ; preds = %bb3, %bb1
  %15 = getelementptr inbounds { i64, i64 }, { i64, i64 }* %2, i32 0, i32 0
  %16 = load i64, i64* %15, align 8, !range !5, !noundef !3
  %17 = getelementptr inbounds { i64, i64 }, { i64, i64 }* %2, i32 0, i32 1
  %18 = load i64, i64* %17, align 8
  %19 = insertvalue { i64, i64 } undef, i64 %16, 0
  %20 = insertvalue { i64, i64 } %19, i64 %18, 1
  ret { i64, i64 } %20
}

; <core::ops::range::Range<T> as core::iter::range::RangeIteratorImpl>::spec_next
; Function Attrs: inlinehint nonlazybind uwtable
define internal { i64, i64 } @"_ZN89_$LT$core..ops..range..Range$LT$T$GT$$u20$as$u20$core..iter..range..RangeIteratorImpl$GT$9spec_next17h7ac08d3ac0e4a345E"({ i64, i64 }* align 8 %self) unnamed_addr #0 {
start:
  %0 = alloca { i64, i64 }, align 8
  %_3 = bitcast { i64, i64 }* %self to i64*
  %_4 = getelementptr inbounds { i64, i64 }, { i64, i64 }* %self, i32 0, i32 1
; call core::cmp::impls::<impl core::cmp::PartialOrd for usize>::lt
  %_2 = call zeroext i1 @"_ZN4core3cmp5impls57_$LT$impl$u20$core..cmp..PartialOrd$u20$for$u20$usize$GT$2lt17hea6a4f38458cc880E"(i64* align 8 %_3, i64* align 8 %_4)
  br label %bb1

bb1:                                              ; preds = %start
  br i1 %_2, label %bb2, label %bb6

bb6:                                              ; preds = %bb1
  %1 = bitcast { i64, i64 }* %0 to i64*
  store i64 0, i64* %1, align 8
  br label %bb7

bb2:                                              ; preds = %bb1
  %_7 = bitcast { i64, i64 }* %self to i64*
; call core::clone::impls::<impl core::clone::Clone for usize>::clone
  %_6 = call i64 @"_ZN4core5clone5impls54_$LT$impl$u20$core..clone..Clone$u20$for$u20$usize$GT$5clone17h0fca3c20a2a2ed7fE"(i64* align 8 %_7)
  br label %bb3

bb3:                                              ; preds = %bb2
; call <usize as core::iter::range::Step>::forward_unchecked
  %n = call i64 @"_ZN49_$LT$usize$u20$as$u20$core..iter..range..Step$GT$17forward_unchecked17hbe3bc35d0cf13f85E"(i64 %_6, i64 1)
  br label %bb4

bb4:                                              ; preds = %bb3
  %_10 = bitcast { i64, i64 }* %self to i64*
; call core::mem::replace
  %_8 = call i64 @_ZN4core3mem7replace17h45849d69e4455967E(i64* align 8 %_10, i64 %n)
  br label %bb5

bb5:                                              ; preds = %bb4
  %2 = bitcast { i64, i64 }* %0 to %"core::option::Option<usize>::Some"*
  %3 = getelementptr inbounds %"core::option::Option<usize>::Some", %"core::option::Option<usize>::Some"* %2, i32 0, i32 1
  store i64 %_8, i64* %3, align 8
  %4 = bitcast { i64, i64 }* %0 to i64*
  store i64 1, i64* %4, align 8
  br label %bb7

bb7:                                              ; preds = %bb6, %bb5
  %5 = getelementptr inbounds { i64, i64 }, { i64, i64 }* %0, i32 0, i32 0
  %6 = load i64, i64* %5, align 8, !range !5, !noundef !3
  %7 = getelementptr inbounds { i64, i64 }, { i64, i64 }* %0, i32 0, i32 1
  %8 = load i64, i64* %7, align 8
  %9 = insertvalue { i64, i64 } undef, i64 %6, 0
  %10 = insertvalue { i64, i64 } %9, i64 %8, 1
  ret { i64, i64 } %10
}

; string_reverse::main
; Function Attrs: nonlazybind uwtable
define internal void @_ZN14string_reverse4main17ha5e6ab878eb7962dE() unnamed_addr #2 personality i32 (i32, i32, i64, %"unwind::libunwind::_Unwind_Exception"*, %"unwind::libunwind::_Unwind_Context"*)* @rust_eh_personality {
start:
  %0 = alloca { i8*, i32 }, align 8
  %_13 = alloca { i64, i64 }, align 8
  %iter = alloca { i64, i64 }, align 8
  %_9 = alloca { i64, i64 }, align 8
  %str = alloca %"alloc::string::String", align 8
; call <alloc::string::String as core::convert::From<&str>>::from
  call void @"_ZN76_$LT$alloc..string..String$u20$as$u20$core..convert..From$LT$$RF$str$GT$$GT$4from17ha05bee858a0cbed7E"(%"alloc::string::String"* sret(%"alloc::string::String") %str, [0 x i8]* align 1 bitcast (<{ [13 x i8] }>* @alloc42 to [0 x i8]*), i64 13)
  br label %bb1

bb1:                                              ; preds = %start
; invoke <alloc::string::String as core::ops::deref::DerefMut>::deref_mut
  %1 = invoke { [0 x i8]*, i64 } @"_ZN68_$LT$alloc..string..String$u20$as$u20$core..ops..deref..DerefMut$GT$9deref_mut17h8cce13a6626e2aa8E"(%"alloc::string::String"* align 8 %str)
          to label %bb2 unwind label %cleanup

bb20:                                             ; preds = %cleanup
; invoke core::ptr::drop_in_place<alloc::string::String>
  invoke void @"_ZN4core3ptr42drop_in_place$LT$alloc..string..String$GT$17h649712bd44f48efbE"(%"alloc::string::String"* %str) #14
          to label %bb21 unwind label %abort

cleanup:                                          ; preds = %panic7, %panic6, %panic5, %panic4, %panic3, %panic2, %panic1, %panic, %bb6, %bb4, %bb3, %bb1
  %2 = landingpad { i8*, i32 }
          cleanup
  %3 = extractvalue { i8*, i32 } %2, 0
  %4 = extractvalue { i8*, i32 } %2, 1
  %5 = getelementptr inbounds { i8*, i32 }, { i8*, i32 }* %0, i32 0, i32 0
  store i8* %3, i8** %5, align 8
  %6 = getelementptr inbounds { i8*, i32 }, { i8*, i32 }* %0, i32 0, i32 1
  store i32 %4, i32* %6, align 8
  br label %bb20

bb2:                                              ; preds = %bb1
  %_4.0 = extractvalue { [0 x i8]*, i64 } %1, 0
  %_4.1 = extractvalue { [0 x i8]*, i64 } %1, 1
  br label %bb3

bb3:                                              ; preds = %bb2
  %bytes.0 = extractvalue { [0 x i8]*, i64 } %1, 0
  %bytes.1 = extractvalue { [0 x i8]*, i64 } %1, 1
; invoke core::slice::<impl [T]>::len
  %len = invoke i64 @"_ZN4core5slice29_$LT$impl$u20$$u5b$T$u5d$$GT$3len17h75e6447c522d4d70E"([0 x i8]* align 1 %bytes.0, i64 %bytes.1)
          to label %bb4 unwind label %cleanup

bb4:                                              ; preds = %bb3
  %_10 = udiv i64 %len, 2
  %7 = bitcast { i64, i64 }* %_9 to i64*
  store i64 0, i64* %7, align 8
  %8 = getelementptr inbounds { i64, i64 }, { i64, i64 }* %_9, i32 0, i32 1
  store i64 %_10, i64* %8, align 8
  %9 = getelementptr inbounds { i64, i64 }, { i64, i64 }* %_9, i32 0, i32 0
  %10 = load i64, i64* %9, align 8
  %11 = getelementptr inbounds { i64, i64 }, { i64, i64 }* %_9, i32 0, i32 1
  %12 = load i64, i64* %11, align 8
; invoke <I as core::iter::traits::collect::IntoIterator>::into_iter
  %13 = invoke { i64, i64 } @"_ZN63_$LT$I$u20$as$u20$core..iter..traits..collect..IntoIterator$GT$9into_iter17hc6e8af867151a5b7E"(i64 %10, i64 %12)
          to label %bb5 unwind label %cleanup

bb5:                                              ; preds = %bb4
  %_8.0 = extractvalue { i64, i64 } %13, 0
  %_8.1 = extractvalue { i64, i64 } %13, 1
  %14 = getelementptr inbounds { i64, i64 }, { i64, i64 }* %iter, i32 0, i32 0
  store i64 %_8.0, i64* %14, align 8
  %15 = getelementptr inbounds { i64, i64 }, { i64, i64 }* %iter, i32 0, i32 1
  store i64 %_8.1, i64* %15, align 8
  br label %bb6

bb6:                                              ; preds = %bb18, %bb5
; invoke core::iter::range::<impl core::iter::traits::iterator::Iterator for core::ops::range::Range<A>>::next
  %16 = invoke { i64, i64 } @"_ZN4core4iter5range101_$LT$impl$u20$core..iter..traits..iterator..Iterator$u20$for$u20$core..ops..range..Range$LT$A$GT$$GT$4next17h4df0746603a02107E"({ i64, i64 }* align 8 %iter)
          to label %bb7 unwind label %cleanup

bb7:                                              ; preds = %bb6
  store { i64, i64 } %16, { i64, i64 }* %_13, align 8
  %17 = bitcast { i64, i64 }* %_13 to i64*
  %_16 = load i64, i64* %17, align 8, !range !5, !noundef !3
  switch i64 %_16, label %bb9 [
    i64 0, label %bb10
    i64 1, label %bb8
  ]

bb9:                                              ; preds = %bb7
  unreachable

bb10:                                             ; preds = %bb7
; call core::ptr::drop_in_place<alloc::string::String>
  call void @"_ZN4core3ptr42drop_in_place$LT$alloc..string..String$GT$17h649712bd44f48efbE"(%"alloc::string::String"* %str)
  br label %bb19

bb8:                                              ; preds = %bb7
  %18 = bitcast { i64, i64 }* %_13 to %"core::option::Option<usize>::Some"*
  %19 = getelementptr inbounds %"core::option::Option<usize>::Some", %"core::option::Option<usize>::Some"* %18, i32 0, i32 1
  %i = load i64, i64* %19, align 8
  %_21 = icmp ult i64 %i, %bytes.1
  %20 = call i1 @llvm.expect.i1(i1 %_21, i1 true)
  br i1 %20, label %bb11, label %panic

bb11:                                             ; preds = %bb8
  %21 = getelementptr inbounds [0 x i8], [0 x i8]* %bytes.0, i64 0, i64 %i
  %temp = load i8, i8* %21, align 1
  %22 = call { i64, i1 } @llvm.usub.with.overflow.i64(i64 %len, i64 1)
  %_26.0 = extractvalue { i64, i1 } %22, 0
  %_26.1 = extractvalue { i64, i1 } %22, 1
  %23 = call i1 @llvm.expect.i1(i1 %_26.1, i1 false)
  br i1 %23, label %panic1, label %bb12

panic:                                            ; preds = %bb8
; invoke core::panicking::panic_bounds_check
  invoke void @_ZN4core9panicking18panic_bounds_check17h5942464f7dd54f22E(i64 %i, i64 %bytes.1, %"core::panic::location::Location"* align 8 bitcast (<{ i8*, [16 x i8] }>* @alloc44 to %"core::panic::location::Location"*)) #16
          to label %unreachable unwind label %cleanup

unreachable:                                      ; preds = %panic7, %panic6, %panic5, %panic4, %panic3, %panic2, %panic1, %panic
  unreachable

bb12:                                             ; preds = %bb11
  %24 = call { i64, i1 } @llvm.usub.with.overflow.i64(i64 %_26.0, i64 %i)
  %_28.0 = extractvalue { i64, i1 } %24, 0
  %_28.1 = extractvalue { i64, i1 } %24, 1
  %25 = call i1 @llvm.expect.i1(i1 %_28.1, i1 false)
  br i1 %25, label %panic2, label %bb13

panic1:                                           ; preds = %bb11
; invoke core::panicking::panic
  invoke void @_ZN4core9panicking5panic17hb76e6adcce1af65bE([0 x i8]* align 1 bitcast ([33 x i8]* @str.1 to [0 x i8]*), i64 33, %"core::panic::location::Location"* align 8 bitcast (<{ i8*, [16 x i8] }>* @alloc46 to %"core::panic::location::Location"*)) #16
          to label %unreachable unwind label %cleanup

bb13:                                             ; preds = %bb12
  %_30 = icmp ult i64 %_28.0, %bytes.1
  %26 = call i1 @llvm.expect.i1(i1 %_30, i1 true)
  br i1 %26, label %bb14, label %panic3

panic2:                                           ; preds = %bb12
; invoke core::panicking::panic
  invoke void @_ZN4core9panicking5panic17hb76e6adcce1af65bE([0 x i8]* align 1 bitcast ([33 x i8]* @str.1 to [0 x i8]*), i64 33, %"core::panic::location::Location"* align 8 bitcast (<{ i8*, [16 x i8] }>* @alloc46 to %"core::panic::location::Location"*)) #16
          to label %unreachable unwind label %cleanup

bb14:                                             ; preds = %bb13
  %27 = getelementptr inbounds [0 x i8], [0 x i8]* %bytes.0, i64 0, i64 %_28.0
  %_22 = load i8, i8* %27, align 1
  %_33 = icmp ult i64 %i, %bytes.1
  %28 = call i1 @llvm.expect.i1(i1 %_33, i1 true)
  br i1 %28, label %bb15, label %panic4

panic3:                                           ; preds = %bb13
; invoke core::panicking::panic_bounds_check
  invoke void @_ZN4core9panicking18panic_bounds_check17h5942464f7dd54f22E(i64 %_28.0, i64 %bytes.1, %"core::panic::location::Location"* align 8 bitcast (<{ i8*, [16 x i8] }>* @alloc48 to %"core::panic::location::Location"*)) #16
          to label %unreachable unwind label %cleanup

bb15:                                             ; preds = %bb14
  %29 = getelementptr inbounds [0 x i8], [0 x i8]* %bytes.0, i64 0, i64 %i
  store i8 %_22, i8* %29, align 1
  %30 = call { i64, i1 } @llvm.usub.with.overflow.i64(i64 %len, i64 1)
  %_38.0 = extractvalue { i64, i1 } %30, 0
  %_38.1 = extractvalue { i64, i1 } %30, 1
  %31 = call i1 @llvm.expect.i1(i1 %_38.1, i1 false)
  br i1 %31, label %panic5, label %bb16

panic4:                                           ; preds = %bb14
; invoke core::panicking::panic_bounds_check
  invoke void @_ZN4core9panicking18panic_bounds_check17h5942464f7dd54f22E(i64 %i, i64 %bytes.1, %"core::panic::location::Location"* align 8 bitcast (<{ i8*, [16 x i8] }>* @alloc50 to %"core::panic::location::Location"*)) #16
          to label %unreachable unwind label %cleanup

bb16:                                             ; preds = %bb15
  %32 = call { i64, i1 } @llvm.usub.with.overflow.i64(i64 %_38.0, i64 %i)
  %_40.0 = extractvalue { i64, i1 } %32, 0
  %_40.1 = extractvalue { i64, i1 } %32, 1
  %33 = call i1 @llvm.expect.i1(i1 %_40.1, i1 false)
  br i1 %33, label %panic6, label %bb17

panic5:                                           ; preds = %bb15
; invoke core::panicking::panic
  invoke void @_ZN4core9panicking5panic17hb76e6adcce1af65bE([0 x i8]* align 1 bitcast ([33 x i8]* @str.1 to [0 x i8]*), i64 33, %"core::panic::location::Location"* align 8 bitcast (<{ i8*, [16 x i8] }>* @alloc52 to %"core::panic::location::Location"*)) #16
          to label %unreachable unwind label %cleanup

bb17:                                             ; preds = %bb16
  %_42 = icmp ult i64 %_40.0, %bytes.1
  %34 = call i1 @llvm.expect.i1(i1 %_42, i1 true)
  br i1 %34, label %bb18, label %panic7

panic6:                                           ; preds = %bb16
; invoke core::panicking::panic
  invoke void @_ZN4core9panicking5panic17hb76e6adcce1af65bE([0 x i8]* align 1 bitcast ([33 x i8]* @str.1 to [0 x i8]*), i64 33, %"core::panic::location::Location"* align 8 bitcast (<{ i8*, [16 x i8] }>* @alloc52 to %"core::panic::location::Location"*)) #16
          to label %unreachable unwind label %cleanup

bb18:                                             ; preds = %bb17
  %35 = getelementptr inbounds [0 x i8], [0 x i8]* %bytes.0, i64 0, i64 %_40.0
  store i8 %temp, i8* %35, align 1
  br label %bb6

panic7:                                           ; preds = %bb17
; invoke core::panicking::panic_bounds_check
  invoke void @_ZN4core9panicking18panic_bounds_check17h5942464f7dd54f22E(i64 %_40.0, i64 %bytes.1, %"core::panic::location::Location"* align 8 bitcast (<{ i8*, [16 x i8] }>* @alloc54 to %"core::panic::location::Location"*)) #16
          to label %unreachable unwind label %cleanup

abort:                                            ; preds = %bb20
  %36 = landingpad { i8*, i32 }
          cleanup
; call core::panicking::panic_no_unwind
  call void @_ZN4core9panicking15panic_no_unwind17h133ff180a0ae6324E() #15
  unreachable

bb21:                                             ; preds = %bb20
  %37 = bitcast { i8*, i32 }* %0 to i8**
  %38 = load i8*, i8** %37, align 8
  %39 = getelementptr inbounds { i8*, i32 }, { i8*, i32 }* %0, i32 0, i32 1
  %40 = load i32, i32* %39, align 8
  %41 = insertvalue { i8*, i32 } undef, i8* %38, 0
  %42 = insertvalue { i8*, i32 } %41, i32 %40, 1
  resume { i8*, i32 } %42

bb19:                                             ; preds = %bb10
  ret void
}

; Function Attrs: nonlazybind uwtable
declare i32 @rust_eh_personality(i32, i32, i64, %"unwind::libunwind::_Unwind_Exception"*, %"unwind::libunwind::_Unwind_Context"*) unnamed_addr #2

; std::rt::lang_start_internal
; Function Attrs: nonlazybind uwtable
declare i64 @_ZN3std2rt19lang_start_internal17h81b06a7d53125e17E({}* align 1, [3 x i64]* align 8, i64, i8**) unnamed_addr #2

; Function Attrs: argmemonly nofree nounwind willreturn
declare void @llvm.memcpy.p0i8.p0i8.i64(i8* noalias nocapture writeonly, i8* noalias nocapture readonly, i64, i1 immarg) #4

; Function Attrs: nofree nosync nounwind readnone willreturn
declare i1 @llvm.expect.i1(i1, i1) #5

; Function Attrs: nofree nosync nounwind readnone speculatable willreturn
declare { i64, i1 } @llvm.umul.with.overflow.i64(i64, i64) #6

; core::panicking::panic_no_unwind
; Function Attrs: cold noinline noreturn nounwind nonlazybind uwtable
declare void @_ZN4core9panicking15panic_no_unwind17h133ff180a0ae6324E() unnamed_addr #7

; Function Attrs: inaccessiblememonly nofree nosync nounwind willreturn
declare void @llvm.assume(i1 noundef) #8

; Function Attrs: nounwind nonlazybind uwtable
declare i8* @__rust_alloc_zeroed(i64, i64) unnamed_addr #9

; Function Attrs: nounwind nonlazybind uwtable
declare noalias i8* @__rust_alloc(i64, i64) unnamed_addr #9

; Function Attrs: nounwind nonlazybind uwtable
declare void @__rust_dealloc(i8*, i64, i64) unnamed_addr #9

; alloc::raw_vec::capacity_overflow
; Function Attrs: noreturn nonlazybind uwtable
declare void @_ZN5alloc7raw_vec17capacity_overflow17haf6de5c917163104E() unnamed_addr #10

; alloc::alloc::handle_alloc_error
; Function Attrs: cold noreturn nonlazybind uwtable
declare void @_ZN5alloc5alloc18handle_alloc_error17h8a1b87478ca53e40E(i64, i64) unnamed_addr #11

; core::panicking::panic_bounds_check
; Function Attrs: cold noinline noreturn nonlazybind uwtable
declare void @_ZN4core9panicking18panic_bounds_check17h5942464f7dd54f22E(i64, i64, %"core::panic::location::Location"* align 8) unnamed_addr #12

; Function Attrs: nofree nosync nounwind readnone speculatable willreturn
declare { i64, i1 } @llvm.usub.with.overflow.i64(i64, i64) #6

; core::panicking::panic
; Function Attrs: cold noinline noreturn nonlazybind uwtable
declare void @_ZN4core9panicking5panic17hb76e6adcce1af65bE([0 x i8]* align 1, i64, %"core::panic::location::Location"* align 8) unnamed_addr #12

; Function Attrs: nonlazybind
define i32 @main(i32 %0, i8** %1) unnamed_addr #13 {
top:
  %2 = sext i32 %0 to i64
; call std::rt::lang_start
  %3 = call i64 @_ZN3std2rt10lang_start17h1e3a0f52709b9116E(void ()* @_ZN14string_reverse4main17ha5e6ab878eb7962dE, i64 %2, i8** %1)
  %4 = trunc i64 %3 to i32
  ret i32 %4
}

attributes #0 = { inlinehint nonlazybind uwtable "probe-stack"="__rust_probestack" "target-cpu"="x86-64" }
attributes #1 = { noinline nonlazybind uwtable "probe-stack"="__rust_probestack" "target-cpu"="x86-64" }
attributes #2 = { nonlazybind uwtable "probe-stack"="__rust_probestack" "target-cpu"="x86-64" }
attributes #3 = { inlinehint noreturn nonlazybind uwtable "probe-stack"="__rust_probestack" "target-cpu"="x86-64" }
attributes #4 = { argmemonly nofree nounwind willreturn }
attributes #5 = { nofree nosync nounwind readnone willreturn }
attributes #6 = { nofree nosync nounwind readnone speculatable willreturn }
attributes #7 = { cold noinline noreturn nounwind nonlazybind uwtable "probe-stack"="__rust_probestack" "target-cpu"="x86-64" }
attributes #8 = { inaccessiblememonly nofree nosync nounwind willreturn }
attributes #9 = { nounwind nonlazybind uwtable "probe-stack"="__rust_probestack" "target-cpu"="x86-64" }
attributes #10 = { noreturn nonlazybind uwtable "probe-stack"="__rust_probestack" "target-cpu"="x86-64" }
attributes #11 = { cold noreturn nonlazybind uwtable "probe-stack"="__rust_probestack" "target-cpu"="x86-64" }
attributes #12 = { cold noinline noreturn nonlazybind uwtable "probe-stack"="__rust_probestack" "target-cpu"="x86-64" }
attributes #13 = { nonlazybind "target-cpu"="x86-64" }
attributes #14 = { noinline }
attributes #15 = { noinline noreturn nounwind }
attributes #16 = { noreturn }
attributes #17 = { nounwind }

!llvm.module.flags = !{!0, !1, !2}

!0 = !{i32 7, !"PIC Level", i32 2}
!1 = !{i32 7, !"PIE Level", i32 2}
!2 = !{i32 2, !"RtLibUseGOT", i32 1}
!3 = !{}
!4 = !{i8 0, i8 2}
!5 = !{i64 0, i64 2}
!6 = !{i64 1, i64 0}
!7 = !{i32 3272749}
!8 = !{i64 1}
